
bomb:     file format elf64-x86-64


Disassembly of section .init:

0000000000400b00 <_init>:
  400b00:	48 83 ec 08          	sub    $0x8,%rsp
  400b04:	48 8b 05 ed 34 20 00 	mov    0x2034ed(%rip),%rax        # 603ff8 <_DYNAMIC+0x1d0>
  400b0b:	48 85 c0             	test   %rax,%rax
  400b0e:	74 05                	je     400b15 <_init+0x15>
  400b10:	e8 0b 01 00 00       	callq  400c20 <__gmon_start__@plt>
  400b15:	48 83 c4 08          	add    $0x8,%rsp
  400b19:	c3                   	retq   

Disassembly of section .plt:

0000000000400b20 <getenv@plt-0x10>:
  400b20:	ff 35 e2 34 20 00    	pushq  0x2034e2(%rip)        # 604008 <_GLOBAL_OFFSET_TABLE_+0x8>
  400b26:	ff 25 e4 34 20 00    	jmpq   *0x2034e4(%rip)        # 604010 <_GLOBAL_OFFSET_TABLE_+0x10>
  400b2c:	0f 1f 40 00          	nopl   0x0(%rax)

0000000000400b30 <getenv@plt>:
  400b30:	ff 25 e2 34 20 00    	jmpq   *0x2034e2(%rip)        # 604018 <_GLOBAL_OFFSET_TABLE_+0x18>
  400b36:	68 00 00 00 00       	pushq  $0x0
  400b3b:	e9 e0 ff ff ff       	jmpq   400b20 <_init+0x20>

0000000000400b40 <strcasecmp@plt>:
  400b40:	ff 25 da 34 20 00    	jmpq   *0x2034da(%rip)        # 604020 <_GLOBAL_OFFSET_TABLE_+0x20>
  400b46:	68 01 00 00 00       	pushq  $0x1
  400b4b:	e9 d0 ff ff ff       	jmpq   400b20 <_init+0x20>

0000000000400b50 <__errno_location@plt>:
  400b50:	ff 25 d2 34 20 00    	jmpq   *0x2034d2(%rip)        # 604028 <_GLOBAL_OFFSET_TABLE_+0x28>
  400b56:	68 02 00 00 00       	pushq  $0x2
  400b5b:	e9 c0 ff ff ff       	jmpq   400b20 <_init+0x20>

0000000000400b60 <strcpy@plt>:
  400b60:	ff 25 ca 34 20 00    	jmpq   *0x2034ca(%rip)        # 604030 <_GLOBAL_OFFSET_TABLE_+0x30>
  400b66:	68 03 00 00 00       	pushq  $0x3
  400b6b:	e9 b0 ff ff ff       	jmpq   400b20 <_init+0x20>

0000000000400b70 <puts@plt>:
  400b70:	ff 25 c2 34 20 00    	jmpq   *0x2034c2(%rip)        # 604038 <_GLOBAL_OFFSET_TABLE_+0x38>
  400b76:	68 04 00 00 00       	pushq  $0x4
  400b7b:	e9 a0 ff ff ff       	jmpq   400b20 <_init+0x20>

0000000000400b80 <write@plt>:
  400b80:	ff 25 ba 34 20 00    	jmpq   *0x2034ba(%rip)        # 604040 <_GLOBAL_OFFSET_TABLE_+0x40>
  400b86:	68 05 00 00 00       	pushq  $0x5
  400b8b:	e9 90 ff ff ff       	jmpq   400b20 <_init+0x20>

0000000000400b90 <printf@plt>:
  400b90:	ff 25 b2 34 20 00    	jmpq   *0x2034b2(%rip)        # 604048 <_GLOBAL_OFFSET_TABLE_+0x48>
  400b96:	68 06 00 00 00       	pushq  $0x6
  400b9b:	e9 80 ff ff ff       	jmpq   400b20 <_init+0x20>

0000000000400ba0 <alarm@plt>:
  400ba0:	ff 25 aa 34 20 00    	jmpq   *0x2034aa(%rip)        # 604050 <_GLOBAL_OFFSET_TABLE_+0x50>
  400ba6:	68 07 00 00 00       	pushq  $0x7
  400bab:	e9 70 ff ff ff       	jmpq   400b20 <_init+0x20>

0000000000400bb0 <close@plt>:
  400bb0:	ff 25 a2 34 20 00    	jmpq   *0x2034a2(%rip)        # 604058 <_GLOBAL_OFFSET_TABLE_+0x58>
  400bb6:	68 08 00 00 00       	pushq  $0x8
  400bbb:	e9 60 ff ff ff       	jmpq   400b20 <_init+0x20>

0000000000400bc0 <read@plt>:
  400bc0:	ff 25 9a 34 20 00    	jmpq   *0x20349a(%rip)        # 604060 <_GLOBAL_OFFSET_TABLE_+0x60>
  400bc6:	68 09 00 00 00       	pushq  $0x9
  400bcb:	e9 50 ff ff ff       	jmpq   400b20 <_init+0x20>

0000000000400bd0 <__libc_start_main@plt>:
  400bd0:	ff 25 92 34 20 00    	jmpq   *0x203492(%rip)        # 604068 <_GLOBAL_OFFSET_TABLE_+0x68>
  400bd6:	68 0a 00 00 00       	pushq  $0xa
  400bdb:	e9 40 ff ff ff       	jmpq   400b20 <_init+0x20>

0000000000400be0 <fgets@plt>:
  400be0:	ff 25 8a 34 20 00    	jmpq   *0x20348a(%rip)        # 604070 <_GLOBAL_OFFSET_TABLE_+0x70>
  400be6:	68 0b 00 00 00       	pushq  $0xb
  400beb:	e9 30 ff ff ff       	jmpq   400b20 <_init+0x20>

0000000000400bf0 <signal@plt>:
  400bf0:	ff 25 82 34 20 00    	jmpq   *0x203482(%rip)        # 604078 <_GLOBAL_OFFSET_TABLE_+0x78>
  400bf6:	68 0c 00 00 00       	pushq  $0xc
  400bfb:	e9 20 ff ff ff       	jmpq   400b20 <_init+0x20>

0000000000400c00 <gethostbyname@plt>:
  400c00:	ff 25 7a 34 20 00    	jmpq   *0x20347a(%rip)        # 604080 <_GLOBAL_OFFSET_TABLE_+0x80>
  400c06:	68 0d 00 00 00       	pushq  $0xd
  400c0b:	e9 10 ff ff ff       	jmpq   400b20 <_init+0x20>

0000000000400c10 <fprintf@plt>:
  400c10:	ff 25 72 34 20 00    	jmpq   *0x203472(%rip)        # 604088 <_GLOBAL_OFFSET_TABLE_+0x88>
  400c16:	68 0e 00 00 00       	pushq  $0xe
  400c1b:	e9 00 ff ff ff       	jmpq   400b20 <_init+0x20>

0000000000400c20 <__gmon_start__@plt>:
  400c20:	ff 25 6a 34 20 00    	jmpq   *0x20346a(%rip)        # 604090 <_GLOBAL_OFFSET_TABLE_+0x90>
  400c26:	68 0f 00 00 00       	pushq  $0xf
  400c2b:	e9 f0 fe ff ff       	jmpq   400b20 <_init+0x20>

0000000000400c30 <strtol@plt>:
  400c30:	ff 25 62 34 20 00    	jmpq   *0x203462(%rip)        # 604098 <_GLOBAL_OFFSET_TABLE_+0x98>
  400c36:	68 10 00 00 00       	pushq  $0x10
  400c3b:	e9 e0 fe ff ff       	jmpq   400b20 <_init+0x20>

0000000000400c40 <fflush@plt>:
  400c40:	ff 25 5a 34 20 00    	jmpq   *0x20345a(%rip)        # 6040a0 <_GLOBAL_OFFSET_TABLE_+0xa0>
  400c46:	68 11 00 00 00       	pushq  $0x11
  400c4b:	e9 d0 fe ff ff       	jmpq   400b20 <_init+0x20>

0000000000400c50 <__isoc99_sscanf@plt>:
  400c50:	ff 25 52 34 20 00    	jmpq   *0x203452(%rip)        # 6040a8 <_GLOBAL_OFFSET_TABLE_+0xa8>
  400c56:	68 12 00 00 00       	pushq  $0x12
  400c5b:	e9 c0 fe ff ff       	jmpq   400b20 <_init+0x20>

0000000000400c60 <memmove@plt>:
  400c60:	ff 25 4a 34 20 00    	jmpq   *0x20344a(%rip)        # 6040b0 <_GLOBAL_OFFSET_TABLE_+0xb0>
  400c66:	68 13 00 00 00       	pushq  $0x13
  400c6b:	e9 b0 fe ff ff       	jmpq   400b20 <_init+0x20>

0000000000400c70 <fopen@plt>:
  400c70:	ff 25 42 34 20 00    	jmpq   *0x203442(%rip)        # 6040b8 <_GLOBAL_OFFSET_TABLE_+0xb8>
  400c76:	68 14 00 00 00       	pushq  $0x14
  400c7b:	e9 a0 fe ff ff       	jmpq   400b20 <_init+0x20>

0000000000400c80 <gethostname@plt>:
  400c80:	ff 25 3a 34 20 00    	jmpq   *0x20343a(%rip)        # 6040c0 <_GLOBAL_OFFSET_TABLE_+0xc0>
  400c86:	68 15 00 00 00       	pushq  $0x15
  400c8b:	e9 90 fe ff ff       	jmpq   400b20 <_init+0x20>

0000000000400c90 <sprintf@plt>:
  400c90:	ff 25 32 34 20 00    	jmpq   *0x203432(%rip)        # 6040c8 <_GLOBAL_OFFSET_TABLE_+0xc8>
  400c96:	68 16 00 00 00       	pushq  $0x16
  400c9b:	e9 80 fe ff ff       	jmpq   400b20 <_init+0x20>

0000000000400ca0 <exit@plt>:
  400ca0:	ff 25 2a 34 20 00    	jmpq   *0x20342a(%rip)        # 6040d0 <_GLOBAL_OFFSET_TABLE_+0xd0>
  400ca6:	68 17 00 00 00       	pushq  $0x17
  400cab:	e9 70 fe ff ff       	jmpq   400b20 <_init+0x20>

0000000000400cb0 <connect@plt>:
  400cb0:	ff 25 22 34 20 00    	jmpq   *0x203422(%rip)        # 6040d8 <_GLOBAL_OFFSET_TABLE_+0xd8>
  400cb6:	68 18 00 00 00       	pushq  $0x18
  400cbb:	e9 60 fe ff ff       	jmpq   400b20 <_init+0x20>

0000000000400cc0 <sleep@plt>:
  400cc0:	ff 25 1a 34 20 00    	jmpq   *0x20341a(%rip)        # 6040e0 <_GLOBAL_OFFSET_TABLE_+0xe0>
  400cc6:	68 19 00 00 00       	pushq  $0x19
  400ccb:	e9 50 fe ff ff       	jmpq   400b20 <_init+0x20>

0000000000400cd0 <__ctype_b_loc@plt>:
  400cd0:	ff 25 12 34 20 00    	jmpq   *0x203412(%rip)        # 6040e8 <_GLOBAL_OFFSET_TABLE_+0xe8>
  400cd6:	68 1a 00 00 00       	pushq  $0x1a
  400cdb:	e9 40 fe ff ff       	jmpq   400b20 <_init+0x20>

0000000000400ce0 <socket@plt>:
  400ce0:	ff 25 0a 34 20 00    	jmpq   *0x20340a(%rip)        # 6040f0 <_GLOBAL_OFFSET_TABLE_+0xf0>
  400ce6:	68 1b 00 00 00       	pushq  $0x1b
  400ceb:	e9 30 fe ff ff       	jmpq   400b20 <_init+0x20>

Disassembly of section .text:

0000000000400cf0 <_start>:
  400cf0:	31 ed                	xor    %ebp,%ebp
  400cf2:	49 89 d1             	mov    %rdx,%r9
  400cf5:	5e                   	pop    %rsi
  400cf6:	48 89 e2             	mov    %rsp,%rdx
  400cf9:	48 83 e4 f0          	and    $0xfffffffffffffff0,%rsp
  400cfd:	50                   	push   %rax
  400cfe:	54                   	push   %rsp
  400cff:	49 c7 c0 10 23 40 00 	mov    $0x402310,%r8
  400d06:	48 c7 c1 a0 22 40 00 	mov    $0x4022a0,%rcx
  400d0d:	48 c7 c7 c2 0d 40 00 	mov    $0x400dc2,%rdi
  400d14:	e8 b7 fe ff ff       	callq  400bd0 <__libc_start_main@plt>
  400d19:	f4                   	hlt    
  400d1a:	66 0f 1f 44 00 00    	nopw   0x0(%rax,%rax,1)

0000000000400d20 <deregister_tm_clones>:
  400d20:	b8 80 47 60 00       	mov    $0x604780,%eax
  400d25:	48 3d 80 47 60 00    	cmp    $0x604780,%rax
  400d2b:	74 13                	je     400d40 <deregister_tm_clones+0x20>
  400d2d:	b8 00 00 00 00       	mov    $0x0,%eax
  400d32:	48 85 c0             	test   %rax,%rax
  400d35:	74 09                	je     400d40 <deregister_tm_clones+0x20>
  400d37:	bf 80 47 60 00       	mov    $0x604780,%edi
  400d3c:	ff e0                	jmpq   *%rax
  400d3e:	66 90                	xchg   %ax,%ax
  400d40:	c3                   	retq   
  400d41:	0f 1f 44 00 00       	nopl   0x0(%rax,%rax,1)
  400d46:	66 2e 0f 1f 84 00 00 	nopw   %cs:0x0(%rax,%rax,1)
  400d4d:	00 00 00 

0000000000400d50 <register_tm_clones>:
  400d50:	be 80 47 60 00       	mov    $0x604780,%esi
  400d55:	48 81 ee 80 47 60 00 	sub    $0x604780,%rsi
  400d5c:	48 89 f0             	mov    %rsi,%rax
  400d5f:	48 c1 ee 3f          	shr    $0x3f,%rsi
  400d63:	48 c1 f8 03          	sar    $0x3,%rax
  400d67:	48 01 c6             	add    %rax,%rsi
  400d6a:	48 d1 fe             	sar    %rsi
  400d6d:	74 11                	je     400d80 <register_tm_clones+0x30>
  400d6f:	b8 00 00 00 00       	mov    $0x0,%eax
  400d74:	48 85 c0             	test   %rax,%rax
  400d77:	74 07                	je     400d80 <register_tm_clones+0x30>
  400d79:	bf 80 47 60 00       	mov    $0x604780,%edi
  400d7e:	ff e0                	jmpq   *%rax
  400d80:	c3                   	retq   
  400d81:	0f 1f 44 00 00       	nopl   0x0(%rax,%rax,1)
  400d86:	66 2e 0f 1f 84 00 00 	nopw   %cs:0x0(%rax,%rax,1)
  400d8d:	00 00 00 

0000000000400d90 <__do_global_dtors_aux>:
  400d90:	80 3d 01 3a 20 00 00 	cmpb   $0x0,0x203a01(%rip)        # 604798 <completed.7311>
  400d97:	75 17                	jne    400db0 <__do_global_dtors_aux+0x20>
  400d99:	55                   	push   %rbp
  400d9a:	48 89 e5             	mov    %rsp,%rbp
  400d9d:	e8 7e ff ff ff       	callq  400d20 <deregister_tm_clones>
  400da2:	c6 05 ef 39 20 00 01 	movb   $0x1,0x2039ef(%rip)        # 604798 <completed.7311>
  400da9:	5d                   	pop    %rbp
  400daa:	c3                   	retq   
  400dab:	0f 1f 44 00 00       	nopl   0x0(%rax,%rax,1)
  400db0:	c3                   	retq   
  400db1:	0f 1f 44 00 00       	nopl   0x0(%rax,%rax,1)
  400db6:	66 2e 0f 1f 84 00 00 	nopw   %cs:0x0(%rax,%rax,1)
  400dbd:	00 00 00 

0000000000400dc0 <frame_dummy>:
  400dc0:	eb 8e                	jmp    400d50 <register_tm_clones>

0000000000400dc2 <main>:
  400dc2:	53                   	push   %rbx
  400dc3:	83 ff 01             	cmp    $0x1,%edi
  400dc6:	0f 84 e8 00 00 00    	je     400eb4 <main+0xf2>
  400dcc:	48 89 f3             	mov    %rsi,%rbx
  400dcf:	83 ff 02             	cmp    $0x2,%edi
  400dd2:	0f 85 0a 01 00 00    	jne    400ee2 <main+0x120>
  400dd8:	48 8b 7e 08          	mov    0x8(%rsi),%rdi
  400ddc:	be 24 23 40 00       	mov    $0x402324,%esi
  400de1:	e8 8a fe ff ff       	callq  400c70 <fopen@plt>
  400de6:	48 89 05 b3 39 20 00 	mov    %rax,0x2039b3(%rip)        # 6047a0 <infile>
  400ded:	48 85 c0             	test   %rax,%rax
  400df0:	0f 84 d1 00 00 00    	je     400ec7 <main+0x105>
  400df6:	e8 c0 05 00 00       	callq  4013bb <initialize_bomb>
  400dfb:	bf a8 23 40 00       	mov    $0x4023a8,%edi
  400e00:	e8 6b fd ff ff       	callq  400b70 <puts@plt>
  400e05:	bf e8 23 40 00       	mov    $0x4023e8,%edi
  400e0a:	e8 61 fd ff ff       	callq  400b70 <puts@plt>
  400e0f:	e8 db 07 00 00       	callq  4015ef <read_line>
  400e14:	48 89 c7             	mov    %rax,%rdi
  400e17:	e8 e2 00 00 00       	callq  400efe <phase_1>
  400e1c:	e8 fc 08 00 00       	callq  40171d <phase_defused>
  400e21:	bf 18 24 40 00       	mov    $0x402418,%edi
  400e26:	e8 45 fd ff ff       	callq  400b70 <puts@plt>
  400e2b:	e8 bf 07 00 00       	callq  4015ef <read_line>
  400e30:	48 89 c7             	mov    %rax,%rdi
  400e33:	e8 e4 00 00 00       	callq  400f1c <phase_2>
  400e38:	e8 e0 08 00 00       	callq  40171d <phase_defused>
  400e3d:	bf 5d 23 40 00       	mov    $0x40235d,%edi
  400e42:	e8 29 fd ff ff       	callq  400b70 <puts@plt>
  400e47:	e8 a3 07 00 00       	callq  4015ef <read_line>
  400e4c:	48 89 c7             	mov    %rax,%rdi
  400e4f:	e8 0b 01 00 00       	callq  400f5f <phase_3>
  400e54:	e8 c4 08 00 00       	callq  40171d <phase_defused>
  400e59:	bf 7b 23 40 00       	mov    $0x40237b,%edi
  400e5e:	e8 0d fd ff ff       	callq  400b70 <puts@plt>
  400e63:	e8 87 07 00 00       	callq  4015ef <read_line>
  400e68:	48 89 c7             	mov    %rax,%rdi
  400e6b:	e8 e7 01 00 00       	callq  401057 <phase_4>
  400e70:	e8 a8 08 00 00       	callq  40171d <phase_defused>
  400e75:	bf 48 24 40 00       	mov    $0x402448,%edi
  400e7a:	e8 f1 fc ff ff       	callq  400b70 <puts@plt>
  400e7f:	e8 6b 07 00 00       	callq  4015ef <read_line>
  400e84:	48 89 c7             	mov    %rax,%rdi
  400e87:	e8 22 02 00 00       	callq  4010ae <phase_5>
  400e8c:	e8 8c 08 00 00       	callq  40171d <phase_defused>
  400e91:	bf 8a 23 40 00       	mov    $0x40238a,%edi
  400e96:	e8 d5 fc ff ff       	callq  400b70 <puts@plt>
  400e9b:	e8 4f 07 00 00       	callq  4015ef <read_line>
  400ea0:	48 89 c7             	mov    %rax,%rdi
  400ea3:	e8 65 02 00 00       	callq  40110d <phase_6>
  400ea8:	e8 70 08 00 00       	callq  40171d <phase_defused>
  400ead:	b8 00 00 00 00       	mov    $0x0,%eax
  400eb2:	5b                   	pop    %rbx
  400eb3:	c3                   	retq   
  400eb4:	48 8b 05 cd 38 20 00 	mov    0x2038cd(%rip),%rax        # 604788 <stdin@@GLIBC_2.2.5>
  400ebb:	48 89 05 de 38 20 00 	mov    %rax,0x2038de(%rip)        # 6047a0 <infile>
  400ec2:	e9 2f ff ff ff       	jmpq   400df6 <main+0x34>
  400ec7:	48 8b 53 08          	mov    0x8(%rbx),%rdx
  400ecb:	48 8b 33             	mov    (%rbx),%rsi
  400ece:	bf 26 23 40 00       	mov    $0x402326,%edi
  400ed3:	e8 b8 fc ff ff       	callq  400b90 <printf@plt>
  400ed8:	bf 08 00 00 00       	mov    $0x8,%edi
  400edd:	e8 be fd ff ff       	callq  400ca0 <exit@plt>
  400ee2:	48 8b 36             	mov    (%rsi),%rsi
  400ee5:	bf 43 23 40 00       	mov    $0x402343,%edi
  400eea:	b8 00 00 00 00       	mov    $0x0,%eax
  400eef:	e8 9c fc ff ff       	callq  400b90 <printf@plt>
  400ef4:	bf 08 00 00 00       	mov    $0x8,%edi
  400ef9:	e8 a2 fd ff ff       	callq  400ca0 <exit@plt>

0000000000400efe <phase_1>:
  400efe:	48 83 ec 08          	sub    $0x8,%rsp
  400f02:	be 70 24 40 00       	mov    $0x402470,%esi
  400f07:	e8 53 04 00 00       	callq  40135f <strings_not_equal>
  400f0c:	85 c0                	test   %eax,%eax
  400f0e:	75 05                	jne    400f15 <phase_1+0x17>
  400f10:	48 83 c4 08          	add    $0x8,%rsp
  400f14:	c3                   	retq   
  400f15:	e8 60 06 00 00       	callq  40157a <explode_bomb>
  400f1a:	eb f4                	jmp    400f10 <phase_1+0x12>

0000000000400f1c <phase_2>:
  400f1c:	53                   	push   %rbx
  400f1d:	48 83 ec 20          	sub    $0x20,%rsp
  400f21:	48 89 e6             	mov    %rsp,%rsi
  400f24:	e8 87 06 00 00       	callq  4015b0 <read_six_numbers>
  400f29:	83 3c 24 00          	cmpl   $0x0,(%rsp)
  400f2d:	78 07                	js     400f36 <phase_2+0x1a>
  400f2f:	bb 01 00 00 00       	mov    $0x1,%ebx
  400f34:	eb 16                	jmp    400f4c <phase_2+0x30>
  400f36:	e8 3f 06 00 00       	callq  40157a <explode_bomb>
  400f3b:	eb f2                	jmp    400f2f <phase_2+0x13>
  400f3d:	e8 38 06 00 00       	callq  40157a <explode_bomb>
  400f42:	48 83 c3 01          	add    $0x1,%rbx
  400f46:	48 83 fb 06          	cmp    $0x6,%rbx
  400f4a:	74 0d                	je     400f59 <phase_2+0x3d>
  400f4c:	89 d8                	mov    %ebx,%eax
  400f4e:	03 44 9c fc          	add    -0x4(%rsp,%rbx,4),%eax
  400f52:	39 04 9c             	cmp    %eax,(%rsp,%rbx,4)
  400f55:	74 eb                	je     400f42 <phase_2+0x26>
  400f57:	eb e4                	jmp    400f3d <phase_2+0x21>
  400f59:	48 83 c4 20          	add    $0x20,%rsp
  400f5d:	5b                   	pop    %rbx
  400f5e:	c3                   	retq   

0000000000400f5f <phase_3>:
  400f5f:	48 83 ec 18          	sub    $0x18,%rsp
  400f63:	48 8d 4c 24 08       	lea    0x8(%rsp),%rcx
  400f68:	48 8d 54 24 0c       	lea    0xc(%rsp),%rdx
  400f6d:	be 45 27 40 00       	mov    $0x402745,%esi
  400f72:	b8 00 00 00 00       	mov    $0x0,%eax
  400f77:	e8 d4 fc ff ff       	callq  400c50 <__isoc99_sscanf@plt>
  400f7c:	83 f8 01             	cmp    $0x1,%eax
  400f7f:	7e 16                	jle    400f97 <phase_3+0x38>
  400f81:	83 7c 24 0c 07       	cmpl   $0x7,0xc(%rsp)
  400f86:	0f 87 82 00 00 00    	ja     40100e <phase_3+0xaf>
  400f8c:	8b 44 24 0c          	mov    0xc(%rsp),%eax
  400f90:	ff 24 c5 d0 24 40 00 	jmpq   *0x4024d0(,%rax,8)
  400f97:	e8 de 05 00 00       	callq  40157a <explode_bomb>
  400f9c:	eb e3                	jmp    400f81 <phase_3+0x22>
  400f9e:	b8 06 01 00 00       	mov    $0x106,%eax
  400fa3:	2d 6c 02 00 00       	sub    $0x26c,%eax
  400fa8:	05 50 02 00 00       	add    $0x250,%eax
  400fad:	2d a6 01 00 00       	sub    $0x1a6,%eax
  400fb2:	05 a6 01 00 00       	add    $0x1a6,%eax
  400fb7:	2d a6 01 00 00       	sub    $0x1a6,%eax
  400fbc:	05 a6 01 00 00       	add    $0x1a6,%eax
  400fc1:	2d a6 01 00 00       	sub    $0x1a6,%eax
  400fc6:	83 7c 24 0c 05       	cmpl   $0x5,0xc(%rsp)
  400fcb:	7f 06                	jg     400fd3 <phase_3+0x74>
  400fcd:	39 44 24 08          	cmp    %eax,0x8(%rsp)
  400fd1:	74 05                	je     400fd8 <phase_3+0x79>
  400fd3:	e8 a2 05 00 00       	callq  40157a <explode_bomb>
  400fd8:	48 83 c4 18          	add    $0x18,%rsp
  400fdc:	c3                   	retq   
  400fdd:	b8 00 00 00 00       	mov    $0x0,%eax
  400fe2:	eb bf                	jmp    400fa3 <phase_3+0x44>
  400fe4:	b8 00 00 00 00       	mov    $0x0,%eax
  400fe9:	eb bd                	jmp    400fa8 <phase_3+0x49>
  400feb:	b8 00 00 00 00       	mov    $0x0,%eax
  400ff0:	eb bb                	jmp    400fad <phase_3+0x4e>
  400ff2:	b8 00 00 00 00       	mov    $0x0,%eax
  400ff7:	eb b9                	jmp    400fb2 <phase_3+0x53>
  400ff9:	b8 00 00 00 00       	mov    $0x0,%eax
  400ffe:	eb b7                	jmp    400fb7 <phase_3+0x58>
  401000:	b8 00 00 00 00       	mov    $0x0,%eax
  401005:	eb b5                	jmp    400fbc <phase_3+0x5d>
  401007:	b8 00 00 00 00       	mov    $0x0,%eax
  40100c:	eb b3                	jmp    400fc1 <phase_3+0x62>
  40100e:	e8 67 05 00 00       	callq  40157a <explode_bomb>
  401013:	b8 00 00 00 00       	mov    $0x0,%eax
  401018:	eb ac                	jmp    400fc6 <phase_3+0x67>

000000000040101a <func4>:
  40101a:	48 83 ec 08          	sub    $0x8,%rsp
  40101e:	89 d0                	mov    %edx,%eax
  401020:	29 f0                	sub    %esi,%eax
  401022:	89 c1                	mov    %eax,%ecx
  401024:	c1 e9 1f             	shr    $0x1f,%ecx
  401027:	01 c1                	add    %eax,%ecx
  401029:	d1 f9                	sar    %ecx
  40102b:	01 f1                	add    %esi,%ecx
  40102d:	39 f9                	cmp    %edi,%ecx
  40102f:	7f 0c                	jg     40103d <func4+0x23>
  401031:	b8 00 00 00 00       	mov    $0x0,%eax
  401036:	7c 11                	jl     401049 <func4+0x2f>
  401038:	48 83 c4 08          	add    $0x8,%rsp
  40103c:	c3                   	retq   
  40103d:	8d 51 ff             	lea    -0x1(%rcx),%edx
  401040:	e8 d5 ff ff ff       	callq  40101a <func4>
  401045:	01 c0                	add    %eax,%eax
  401047:	eb ef                	jmp    401038 <func4+0x1e>
  401049:	8d 71 01             	lea    0x1(%rcx),%esi
  40104c:	e8 c9 ff ff ff       	callq  40101a <func4>
  401051:	8d 44 00 01          	lea    0x1(%rax,%rax,1),%eax
  401055:	eb e1                	jmp    401038 <func4+0x1e>

0000000000401057 <phase_4>:
  401057:	48 83 ec 18          	sub    $0x18,%rsp
  40105b:	48 8d 4c 24 08       	lea    0x8(%rsp),%rcx
  401060:	48 8d 54 24 0c       	lea    0xc(%rsp),%rdx
  401065:	be 45 27 40 00       	mov    $0x402745,%esi
  40106a:	b8 00 00 00 00       	mov    $0x0,%eax
  40106f:	e8 dc fb ff ff       	callq  400c50 <__isoc99_sscanf@plt>
  401074:	83 f8 02             	cmp    $0x2,%eax
  401077:	75 07                	jne    401080 <phase_4+0x29>
  401079:	83 7c 24 0c 0e       	cmpl   $0xe,0xc(%rsp)
  40107e:	76 05                	jbe    401085 <phase_4+0x2e>
  401080:	e8 f5 04 00 00       	callq  40157a <explode_bomb>
  401085:	ba 0e 00 00 00       	mov    $0xe,%edx
  40108a:	be 00 00 00 00       	mov    $0x0,%esi
  40108f:	8b 7c 24 0c          	mov    0xc(%rsp),%edi
  401093:	e8 82 ff ff ff       	callq  40101a <func4>
  401098:	83 f8 05             	cmp    $0x5,%eax
  40109b:	75 07                	jne    4010a4 <phase_4+0x4d>
  40109d:	83 7c 24 08 05       	cmpl   $0x5,0x8(%rsp)
  4010a2:	74 05                	je     4010a9 <phase_4+0x52>
  4010a4:	e8 d1 04 00 00       	callq  40157a <explode_bomb>
  4010a9:	48 83 c4 18          	add    $0x18,%rsp
  4010ad:	c3                   	retq   

00000000004010ae <phase_5>:
  4010ae:	53                   	push   %rbx
  4010af:	48 83 ec 10          	sub    $0x10,%rsp
  4010b3:	48 89 fb             	mov    %rdi,%rbx
  4010b6:	e8 87 02 00 00       	callq  401342 <string_length>
  4010bb:	83 f8 06             	cmp    $0x6,%eax
  4010be:	75 3f                	jne    4010ff <phase_5+0x51>
  4010c0:	b8 00 00 00 00       	mov    $0x0,%eax
  4010c5:	0f b6 14 03          	movzbl (%rbx,%rax,1),%edx
  4010c9:	83 e2 0f             	and    $0xf,%edx
  4010cc:	0f b6 92 10 25 40 00 	movzbl 0x402510(%rdx),%edx
  4010d3:	88 54 04 09          	mov    %dl,0x9(%rsp,%rax,1)
  4010d7:	48 83 c0 01          	add    $0x1,%rax
  4010db:	48 83 f8 06          	cmp    $0x6,%rax
  4010df:	75 e4                	jne    4010c5 <phase_5+0x17>
  4010e1:	c6 44 24 0f 00       	movb   $0x0,0xf(%rsp)
  4010e6:	be c6 24 40 00       	mov    $0x4024c6,%esi
  4010eb:	48 8d 7c 24 09       	lea    0x9(%rsp),%rdi
  4010f0:	e8 6a 02 00 00       	callq  40135f <strings_not_equal>
  4010f5:	85 c0                	test   %eax,%eax
  4010f7:	75 0d                	jne    401106 <phase_5+0x58>
  4010f9:	48 83 c4 10          	add    $0x10,%rsp
  4010fd:	5b                   	pop    %rbx
  4010fe:	c3                   	retq   
  4010ff:	e8 76 04 00 00       	callq  40157a <explode_bomb>
  401104:	eb ba                	jmp    4010c0 <phase_5+0x12>
  401106:	e8 6f 04 00 00       	callq  40157a <explode_bomb>
  40110b:	eb ec                	jmp    4010f9 <phase_5+0x4b>

000000000040110d <phase_6>:
  40110d:	41 56                	push   %r14
  40110f:	41 55                	push   %r13
  401111:	41 54                	push   %r12
  401113:	55                   	push   %rbp
  401114:	53                   	push   %rbx
  401115:	48 83 ec 50          	sub    $0x50,%rsp
  401119:	48 8d 74 24 30       	lea    0x30(%rsp),%rsi
  40111e:	e8 8d 04 00 00       	callq  4015b0 <read_six_numbers>
  401123:	4c 8d 64 24 30       	lea    0x30(%rsp),%r12
  401128:	4d 89 e5             	mov    %r12,%r13
  40112b:	41 be 01 00 00 00    	mov    $0x1,%r14d
  401131:	e9 bd 00 00 00       	jmpq   4011f3 <phase_6+0xe6>
  401136:	e8 3f 04 00 00       	callq  40157a <explode_bomb>
  40113b:	e9 c6 00 00 00       	jmpq   401206 <phase_6+0xf9>
  401140:	e8 35 04 00 00       	callq  40157a <explode_bomb>
  401145:	48 83 c3 01          	add    $0x1,%rbx
  401149:	83 fb 05             	cmp    $0x5,%ebx
  40114c:	0f 8f 99 00 00 00    	jg     4011eb <phase_6+0xde>
  401152:	8b 44 9c 30          	mov    0x30(%rsp,%rbx,4),%eax
  401156:	39 45 00             	cmp    %eax,0x0(%rbp)
  401159:	75 ea                	jne    401145 <phase_6+0x38>
  40115b:	eb e3                	jmp    401140 <phase_6+0x33>
  40115d:	49 8d 4c 24 18       	lea    0x18(%r12),%rcx
  401162:	ba 07 00 00 00       	mov    $0x7,%edx
  401167:	89 d0                	mov    %edx,%eax
  401169:	41 2b 04 24          	sub    (%r12),%eax
  40116d:	41 89 04 24          	mov    %eax,(%r12)
  401171:	49 83 c4 04          	add    $0x4,%r12
  401175:	4c 39 e1             	cmp    %r12,%rcx
  401178:	75 ed                	jne    401167 <phase_6+0x5a>
  40117a:	be 00 00 00 00       	mov    $0x0,%esi
  40117f:	8b 4c b4 30          	mov    0x30(%rsp,%rsi,4),%ecx
  401183:	b8 01 00 00 00       	mov    $0x1,%eax
  401188:	ba f0 42 60 00       	mov    $0x6042f0,%edx
  40118d:	83 f9 01             	cmp    $0x1,%ecx
  401190:	7e 0b                	jle    40119d <phase_6+0x90>
  401192:	48 8b 52 08          	mov    0x8(%rdx),%rdx
  401196:	83 c0 01             	add    $0x1,%eax
  401199:	39 c8                	cmp    %ecx,%eax
  40119b:	75 f5                	jne    401192 <phase_6+0x85>
  40119d:	48 89 14 f4          	mov    %rdx,(%rsp,%rsi,8)
  4011a1:	48 83 c6 01          	add    $0x1,%rsi
  4011a5:	48 83 fe 06          	cmp    $0x6,%rsi
  4011a9:	75 d4                	jne    40117f <phase_6+0x72>
  4011ab:	48 8b 1c 24          	mov    (%rsp),%rbx
  4011af:	48 8b 44 24 08       	mov    0x8(%rsp),%rax
  4011b4:	48 89 43 08          	mov    %rax,0x8(%rbx)
  4011b8:	48 8b 54 24 10       	mov    0x10(%rsp),%rdx
  4011bd:	48 89 50 08          	mov    %rdx,0x8(%rax)
  4011c1:	48 8b 44 24 18       	mov    0x18(%rsp),%rax
  4011c6:	48 89 42 08          	mov    %rax,0x8(%rdx)
  4011ca:	48 8b 54 24 20       	mov    0x20(%rsp),%rdx
  4011cf:	48 89 50 08          	mov    %rdx,0x8(%rax)
  4011d3:	48 8b 44 24 28       	mov    0x28(%rsp),%rax
  4011d8:	48 89 42 08          	mov    %rax,0x8(%rdx)
  4011dc:	48 c7 40 08 00 00 00 	movq   $0x0,0x8(%rax)
  4011e3:	00 
  4011e4:	bd 05 00 00 00       	mov    $0x5,%ebp
  4011e9:	eb 36                	jmp    401221 <phase_6+0x114>
  4011eb:	49 83 c6 01          	add    $0x1,%r14
  4011ef:	49 83 c5 04          	add    $0x4,%r13
  4011f3:	4c 89 ed             	mov    %r13,%rbp
  4011f6:	41 8b 45 00          	mov    0x0(%r13),%eax
  4011fa:	83 e8 01             	sub    $0x1,%eax
  4011fd:	83 f8 05             	cmp    $0x5,%eax
  401200:	0f 87 30 ff ff ff    	ja     401136 <phase_6+0x29>
  401206:	41 83 fe 05          	cmp    $0x5,%r14d
  40120a:	0f 8f 4d ff ff ff    	jg     40115d <phase_6+0x50>
  401210:	4c 89 f3             	mov    %r14,%rbx
  401213:	e9 3a ff ff ff       	jmpq   401152 <phase_6+0x45>
  401218:	48 8b 5b 08          	mov    0x8(%rbx),%rbx
  40121c:	83 ed 01             	sub    $0x1,%ebp
  40121f:	74 11                	je     401232 <phase_6+0x125>
  401221:	48 8b 43 08          	mov    0x8(%rbx),%rax
  401225:	8b 00                	mov    (%rax),%eax
  401227:	39 03                	cmp    %eax,(%rbx)
  401229:	7d ed                	jge    401218 <phase_6+0x10b>
  40122b:	e8 4a 03 00 00       	callq  40157a <explode_bomb>
  401230:	eb e6                	jmp    401218 <phase_6+0x10b>
  401232:	48 83 c4 50          	add    $0x50,%rsp
  401236:	5b                   	pop    %rbx
  401237:	5d                   	pop    %rbp
  401238:	41 5c                	pop    %r12
  40123a:	41 5d                	pop    %r13
  40123c:	41 5e                	pop    %r14
  40123e:	c3                   	retq   

000000000040123f <fun7>:
  40123f:	48 85 ff             	test   %rdi,%rdi
  401242:	74 32                	je     401276 <fun7+0x37>
  401244:	48 83 ec 08          	sub    $0x8,%rsp
  401248:	8b 17                	mov    (%rdi),%edx
  40124a:	39 f2                	cmp    %esi,%edx
  40124c:	7f 0c                	jg     40125a <fun7+0x1b>
  40124e:	b8 00 00 00 00       	mov    $0x0,%eax
  401253:	75 12                	jne    401267 <fun7+0x28>
  401255:	48 83 c4 08          	add    $0x8,%rsp
  401259:	c3                   	retq   
  40125a:	48 8b 7f 08          	mov    0x8(%rdi),%rdi
  40125e:	e8 dc ff ff ff       	callq  40123f <fun7>
  401263:	01 c0                	add    %eax,%eax
  401265:	eb ee                	jmp    401255 <fun7+0x16>
  401267:	48 8b 7f 10          	mov    0x10(%rdi),%rdi
  40126b:	e8 cf ff ff ff       	callq  40123f <fun7>
  401270:	8d 44 00 01          	lea    0x1(%rax,%rax,1),%eax
  401274:	eb df                	jmp    401255 <fun7+0x16>
  401276:	b8 ff ff ff ff       	mov    $0xffffffff,%eax
  40127b:	c3                   	retq   

000000000040127c <secret_phase>:
  40127c:	53                   	push   %rbx
  40127d:	e8 6d 03 00 00       	callq  4015ef <read_line>
  401282:	48 89 c7             	mov    %rax,%rdi
  401285:	ba 0a 00 00 00       	mov    $0xa,%edx
  40128a:	be 00 00 00 00       	mov    $0x0,%esi
  40128f:	e8 9c f9 ff ff       	callq  400c30 <strtol@plt>
  401294:	48 89 c3             	mov    %rax,%rbx
  401297:	8d 40 ff             	lea    -0x1(%rax),%eax
  40129a:	3d e8 03 00 00       	cmp    $0x3e8,%eax
  40129f:	77 22                	ja     4012c3 <secret_phase+0x47>
  4012a1:	89 de                	mov    %ebx,%esi
  4012a3:	bf 10 41 60 00       	mov    $0x604110,%edi
  4012a8:	e8 92 ff ff ff       	callq  40123f <fun7>
  4012ad:	83 f8 03             	cmp    $0x3,%eax
  4012b0:	75 18                	jne    4012ca <secret_phase+0x4e>
  4012b2:	bf a0 24 40 00       	mov    $0x4024a0,%edi
  4012b7:	e8 b4 f8 ff ff       	callq  400b70 <puts@plt>
  4012bc:	e8 5c 04 00 00       	callq  40171d <phase_defused>
  4012c1:	5b                   	pop    %rbx
  4012c2:	c3                   	retq   
  4012c3:	e8 b2 02 00 00       	callq  40157a <explode_bomb>
  4012c8:	eb d7                	jmp    4012a1 <secret_phase+0x25>
  4012ca:	e8 ab 02 00 00       	callq  40157a <explode_bomb>
  4012cf:	eb e1                	jmp    4012b2 <secret_phase+0x36>

00000000004012d1 <sig_handler>:
  4012d1:	48 83 ec 08          	sub    $0x8,%rsp
  4012d5:	bf 20 25 40 00       	mov    $0x402520,%edi
  4012da:	e8 91 f8 ff ff       	callq  400b70 <puts@plt>
  4012df:	bf 03 00 00 00       	mov    $0x3,%edi
  4012e4:	e8 d7 f9 ff ff       	callq  400cc0 <sleep@plt>
  4012e9:	bf c1 26 40 00       	mov    $0x4026c1,%edi
  4012ee:	b8 00 00 00 00       	mov    $0x0,%eax
  4012f3:	e8 98 f8 ff ff       	callq  400b90 <printf@plt>
  4012f8:	48 8b 3d 81 34 20 00 	mov    0x203481(%rip),%rdi        # 604780 <__TMC_END__>
  4012ff:	e8 3c f9 ff ff       	callq  400c40 <fflush@plt>
  401304:	bf 01 00 00 00       	mov    $0x1,%edi
  401309:	e8 b2 f9 ff ff       	callq  400cc0 <sleep@plt>
  40130e:	bf c9 26 40 00       	mov    $0x4026c9,%edi
  401313:	e8 58 f8 ff ff       	callq  400b70 <puts@plt>
  401318:	bf 10 00 00 00       	mov    $0x10,%edi
  40131d:	e8 7e f9 ff ff       	callq  400ca0 <exit@plt>

0000000000401322 <invalid_phase>:
  401322:	48 83 ec 08          	sub    $0x8,%rsp
  401326:	48 89 fe             	mov    %rdi,%rsi
  401329:	bf d1 26 40 00       	mov    $0x4026d1,%edi
  40132e:	b8 00 00 00 00       	mov    $0x0,%eax
  401333:	e8 58 f8 ff ff       	callq  400b90 <printf@plt>
  401338:	bf 08 00 00 00       	mov    $0x8,%edi
  40133d:	e8 5e f9 ff ff       	callq  400ca0 <exit@plt>

0000000000401342 <string_length>:
  401342:	80 3f 00             	cmpb   $0x0,(%rdi)
  401345:	74 12                	je     401359 <string_length+0x17>
  401347:	b8 00 00 00 00       	mov    $0x0,%eax
  40134c:	48 83 c7 01          	add    $0x1,%rdi
  401350:	83 c0 01             	add    $0x1,%eax
  401353:	80 3f 00             	cmpb   $0x0,(%rdi)
  401356:	75 f4                	jne    40134c <string_length+0xa>
  401358:	c3                   	retq   
  401359:	b8 00 00 00 00       	mov    $0x0,%eax
  40135e:	c3                   	retq   

000000000040135f <strings_not_equal>:
  40135f:	41 54                	push   %r12
  401361:	55                   	push   %rbp
  401362:	53                   	push   %rbx
  401363:	48 89 fb             	mov    %rdi,%rbx
  401366:	48 89 f5             	mov    %rsi,%rbp
  401369:	e8 d4 ff ff ff       	callq  401342 <string_length>
  40136e:	41 89 c4             	mov    %eax,%r12d
  401371:	48 89 ef             	mov    %rbp,%rdi
  401374:	e8 c9 ff ff ff       	callq  401342 <string_length>
  401379:	89 c2                	mov    %eax,%edx
  40137b:	b8 01 00 00 00       	mov    $0x1,%eax
  401380:	41 39 d4             	cmp    %edx,%r12d
  401383:	75 31                	jne    4013b6 <strings_not_equal+0x57>
  401385:	0f b6 13             	movzbl (%rbx),%edx
  401388:	84 d2                	test   %dl,%dl
  40138a:	74 1e                	je     4013aa <strings_not_equal+0x4b>
  40138c:	b8 00 00 00 00       	mov    $0x0,%eax
  401391:	38 54 05 00          	cmp    %dl,0x0(%rbp,%rax,1)
  401395:	75 1a                	jne    4013b1 <strings_not_equal+0x52>
  401397:	48 83 c0 01          	add    $0x1,%rax
  40139b:	0f b6 14 03          	movzbl (%rbx,%rax,1),%edx
  40139f:	84 d2                	test   %dl,%dl
  4013a1:	75 ee                	jne    401391 <strings_not_equal+0x32>
  4013a3:	b8 00 00 00 00       	mov    $0x0,%eax
  4013a8:	eb 0c                	jmp    4013b6 <strings_not_equal+0x57>
  4013aa:	b8 00 00 00 00       	mov    $0x0,%eax
  4013af:	eb 05                	jmp    4013b6 <strings_not_equal+0x57>
  4013b1:	b8 01 00 00 00       	mov    $0x1,%eax
  4013b6:	5b                   	pop    %rbx
  4013b7:	5d                   	pop    %rbp
  4013b8:	41 5c                	pop    %r12
  4013ba:	c3                   	retq   

00000000004013bb <initialize_bomb>:
  4013bb:	53                   	push   %rbx
  4013bc:	48 81 ec 40 20 00 00 	sub    $0x2040,%rsp
  4013c3:	be d1 12 40 00       	mov    $0x4012d1,%esi
  4013c8:	bf 02 00 00 00       	mov    $0x2,%edi
  4013cd:	e8 1e f8 ff ff       	callq  400bf0 <signal@plt>
  4013d2:	be 40 00 00 00       	mov    $0x40,%esi
  4013d7:	48 8d bc 24 00 20 00 	lea    0x2000(%rsp),%rdi
  4013de:	00 
  4013df:	e8 9c f8 ff ff       	callq  400c80 <gethostname@plt>
  4013e4:	85 c0                	test   %eax,%eax
  4013e6:	75 43                	jne    40142b <initialize_bomb+0x70>
  4013e8:	48 8b 3d 91 2f 20 00 	mov    0x202f91(%rip),%rdi        # 604380 <host_table>
  4013ef:	bb 88 43 60 00       	mov    $0x604388,%ebx
  4013f4:	48 85 ff             	test   %rdi,%rdi
  4013f7:	74 1e                	je     401417 <initialize_bomb+0x5c>
  4013f9:	48 8d b4 24 00 20 00 	lea    0x2000(%rsp),%rsi
  401400:	00 
  401401:	e8 3a f7 ff ff       	callq  400b40 <strcasecmp@plt>
  401406:	85 c0                	test   %eax,%eax
  401408:	74 51                	je     40145b <initialize_bomb+0xa0>
  40140a:	48 83 c3 08          	add    $0x8,%rbx
  40140e:	48 8b 7b f8          	mov    -0x8(%rbx),%rdi
  401412:	48 85 ff             	test   %rdi,%rdi
  401415:	75 e2                	jne    4013f9 <initialize_bomb+0x3e>
  401417:	bf 90 25 40 00       	mov    $0x402590,%edi
  40141c:	e8 4f f7 ff ff       	callq  400b70 <puts@plt>
  401421:	bf 08 00 00 00       	mov    $0x8,%edi
  401426:	e8 75 f8 ff ff       	callq  400ca0 <exit@plt>
  40142b:	bf 58 25 40 00       	mov    $0x402558,%edi
  401430:	e8 3b f7 ff ff       	callq  400b70 <puts@plt>
  401435:	bf 08 00 00 00       	mov    $0x8,%edi
  40143a:	e8 61 f8 ff ff       	callq  400ca0 <exit@plt>
  40143f:	48 89 e6             	mov    %rsp,%rsi
  401442:	bf e2 26 40 00       	mov    $0x4026e2,%edi
  401447:	b8 00 00 00 00       	mov    $0x0,%eax
  40144c:	e8 3f f7 ff ff       	callq  400b90 <printf@plt>
  401451:	bf 08 00 00 00       	mov    $0x8,%edi
  401456:	e8 45 f8 ff ff       	callq  400ca0 <exit@plt>
  40145b:	48 89 e7             	mov    %rsp,%rdi
  40145e:	e8 29 0c 00 00       	callq  40208c <init_driver>
  401463:	85 c0                	test   %eax,%eax
  401465:	78 d8                	js     40143f <initialize_bomb+0x84>
  401467:	48 81 c4 40 20 00 00 	add    $0x2040,%rsp
  40146e:	5b                   	pop    %rbx
  40146f:	c3                   	retq   

0000000000401470 <initialize_bomb_solve>:
  401470:	c3                   	retq   

0000000000401471 <blank_line>:
  401471:	55                   	push   %rbp
  401472:	53                   	push   %rbx
  401473:	48 83 ec 08          	sub    $0x8,%rsp
  401477:	48 89 fd             	mov    %rdi,%rbp
  40147a:	0f b6 5d 00          	movzbl 0x0(%rbp),%ebx
  40147e:	84 db                	test   %bl,%bl
  401480:	74 1e                	je     4014a0 <blank_line+0x2f>
  401482:	e8 49 f8 ff ff       	callq  400cd0 <__ctype_b_loc@plt>
  401487:	48 83 c5 01          	add    $0x1,%rbp
  40148b:	48 0f be db          	movsbq %bl,%rbx
  40148f:	48 8b 00             	mov    (%rax),%rax
  401492:	f6 44 58 01 20       	testb  $0x20,0x1(%rax,%rbx,2)
  401497:	75 e1                	jne    40147a <blank_line+0x9>
  401499:	b8 00 00 00 00       	mov    $0x0,%eax
  40149e:	eb 05                	jmp    4014a5 <blank_line+0x34>
  4014a0:	b8 01 00 00 00       	mov    $0x1,%eax
  4014a5:	48 83 c4 08          	add    $0x8,%rsp
  4014a9:	5b                   	pop    %rbx
  4014aa:	5d                   	pop    %rbp
  4014ab:	c3                   	retq   

00000000004014ac <skip>:
  4014ac:	53                   	push   %rbx
  4014ad:	48 63 05 e8 32 20 00 	movslq 0x2032e8(%rip),%rax        # 60479c <num_input_strings>
  4014b4:	48 8d 3c 80          	lea    (%rax,%rax,4),%rdi
  4014b8:	48 c1 e7 04          	shl    $0x4,%rdi
  4014bc:	48 81 c7 c0 47 60 00 	add    $0x6047c0,%rdi
  4014c3:	48 8b 15 d6 32 20 00 	mov    0x2032d6(%rip),%rdx        # 6047a0 <infile>
  4014ca:	be 50 00 00 00       	mov    $0x50,%esi
  4014cf:	e8 0c f7 ff ff       	callq  400be0 <fgets@plt>
  4014d4:	48 89 c3             	mov    %rax,%rbx
  4014d7:	48 85 c0             	test   %rax,%rax
  4014da:	74 0c                	je     4014e8 <skip+0x3c>
  4014dc:	48 89 c7             	mov    %rax,%rdi
  4014df:	e8 8d ff ff ff       	callq  401471 <blank_line>
  4014e4:	85 c0                	test   %eax,%eax
  4014e6:	75 c5                	jne    4014ad <skip+0x1>
  4014e8:	48 89 d8             	mov    %rbx,%rax
  4014eb:	5b                   	pop    %rbx
  4014ec:	c3                   	retq   

00000000004014ed <send_msg>:
  4014ed:	48 81 ec 08 40 00 00 	sub    $0x4008,%rsp
  4014f4:	44 8b 05 a1 32 20 00 	mov    0x2032a1(%rip),%r8d        # 60479c <num_input_strings>
  4014fb:	41 8d 40 ff          	lea    -0x1(%r8),%eax
  4014ff:	48 98                	cltq   
  401501:	48 8d 04 80          	lea    (%rax,%rax,4),%rax
  401505:	48 c1 e0 04          	shl    $0x4,%rax
  401509:	85 ff                	test   %edi,%edi
  40150b:	b9 fc 26 40 00       	mov    $0x4026fc,%ecx
  401510:	ba 04 27 40 00       	mov    $0x402704,%edx
  401515:	48 0f 44 ca          	cmove  %rdx,%rcx
  401519:	4c 8d 88 c0 47 60 00 	lea    0x6047c0(%rax),%r9
  401520:	8b 15 4e 2e 20 00    	mov    0x202e4e(%rip),%edx        # 604374 <bomb_id>
  401526:	be 0d 27 40 00       	mov    $0x40270d,%esi
  40152b:	48 8d bc 24 00 20 00 	lea    0x2000(%rsp),%rdi
  401532:	00 
  401533:	b8 00 00 00 00       	mov    $0x0,%eax
  401538:	e8 53 f7 ff ff       	callq  400c90 <sprintf@plt>
  40153d:	49 89 e0             	mov    %rsp,%r8
  401540:	b9 00 00 00 00       	mov    $0x0,%ecx
  401545:	48 8d 94 24 00 20 00 	lea    0x2000(%rsp),%rdx
  40154c:	00 
  40154d:	be 50 43 60 00       	mov    $0x604350,%esi
  401552:	bf 68 43 60 00       	mov    $0x604368,%edi
  401557:	e8 d6 0c 00 00       	callq  402232 <driver_post>
  40155c:	85 c0                	test   %eax,%eax
  40155e:	78 08                	js     401568 <send_msg+0x7b>
  401560:	48 81 c4 08 40 00 00 	add    $0x4008,%rsp
  401567:	c3                   	retq   
  401568:	48 89 e7             	mov    %rsp,%rdi
  40156b:	e8 00 f6 ff ff       	callq  400b70 <puts@plt>
  401570:	bf 00 00 00 00       	mov    $0x0,%edi
  401575:	e8 26 f7 ff ff       	callq  400ca0 <exit@plt>

000000000040157a <explode_bomb>:
  40157a:	48 83 ec 08          	sub    $0x8,%rsp
  40157e:	bf 19 27 40 00       	mov    $0x402719,%edi
  401583:	e8 e8 f5 ff ff       	callq  400b70 <puts@plt>
  401588:	bf 22 27 40 00       	mov    $0x402722,%edi
  40158d:	e8 de f5 ff ff       	callq  400b70 <puts@plt>
  401592:	bf 00 00 00 00       	mov    $0x0,%edi
  401597:	e8 51 ff ff ff       	callq  4014ed <send_msg>
  40159c:	bf c8 25 40 00       	mov    $0x4025c8,%edi
  4015a1:	e8 ca f5 ff ff       	callq  400b70 <puts@plt>
  4015a6:	bf 08 00 00 00       	mov    $0x8,%edi
  4015ab:	e8 f0 f6 ff ff       	callq  400ca0 <exit@plt>

00000000004015b0 <read_six_numbers>:
  4015b0:	48 83 ec 08          	sub    $0x8,%rsp
  4015b4:	48 89 f2             	mov    %rsi,%rdx
  4015b7:	48 8d 4e 04          	lea    0x4(%rsi),%rcx
  4015bb:	48 8d 46 14          	lea    0x14(%rsi),%rax
  4015bf:	50                   	push   %rax
  4015c0:	48 8d 46 10          	lea    0x10(%rsi),%rax
  4015c4:	50                   	push   %rax
  4015c5:	4c 8d 4e 0c          	lea    0xc(%rsi),%r9
  4015c9:	4c 8d 46 08          	lea    0x8(%rsi),%r8
  4015cd:	be 39 27 40 00       	mov    $0x402739,%esi
  4015d2:	b8 00 00 00 00       	mov    $0x0,%eax
  4015d7:	e8 74 f6 ff ff       	callq  400c50 <__isoc99_sscanf@plt>
  4015dc:	48 83 c4 10          	add    $0x10,%rsp
  4015e0:	83 f8 05             	cmp    $0x5,%eax
  4015e3:	7e 05                	jle    4015ea <read_six_numbers+0x3a>
  4015e5:	48 83 c4 08          	add    $0x8,%rsp
  4015e9:	c3                   	retq   
  4015ea:	e8 8b ff ff ff       	callq  40157a <explode_bomb>

00000000004015ef <read_line>:
  4015ef:	48 83 ec 08          	sub    $0x8,%rsp
  4015f3:	b8 00 00 00 00       	mov    $0x0,%eax
  4015f8:	e8 af fe ff ff       	callq  4014ac <skip>
  4015fd:	48 85 c0             	test   %rax,%rax
  401600:	74 63                	je     401665 <read_line+0x76>
  401602:	8b 35 94 31 20 00    	mov    0x203194(%rip),%esi        # 60479c <num_input_strings>
  401608:	48 63 c6             	movslq %esi,%rax
  40160b:	48 8d 14 80          	lea    (%rax,%rax,4),%rdx
  40160f:	48 c1 e2 04          	shl    $0x4,%rdx
  401613:	48 81 c2 c0 47 60 00 	add    $0x6047c0,%rdx
  40161a:	48 c7 c1 ff ff ff ff 	mov    $0xffffffffffffffff,%rcx
  401621:	b8 00 00 00 00       	mov    $0x0,%eax
  401626:	48 89 d7             	mov    %rdx,%rdi
  401629:	f2 ae                	repnz scas %es:(%rdi),%al
  40162b:	48 f7 d1             	not    %rcx
  40162e:	48 83 e9 01          	sub    $0x1,%rcx
  401632:	83 f9 4e             	cmp    $0x4e,%ecx
  401635:	0f 8f 9c 00 00 00    	jg     4016d7 <read_line+0xe8>
  40163b:	83 e9 01             	sub    $0x1,%ecx
  40163e:	48 63 c9             	movslq %ecx,%rcx
  401641:	48 63 c6             	movslq %esi,%rax
  401644:	48 8d 04 80          	lea    (%rax,%rax,4),%rax
  401648:	48 c1 e0 04          	shl    $0x4,%rax
  40164c:	c6 84 01 c0 47 60 00 	movb   $0x0,0x6047c0(%rcx,%rax,1)
  401653:	00 
  401654:	8d 46 01             	lea    0x1(%rsi),%eax
  401657:	89 05 3f 31 20 00    	mov    %eax,0x20313f(%rip)        # 60479c <num_input_strings>
  40165d:	48 89 d0             	mov    %rdx,%rax
  401660:	48 83 c4 08          	add    $0x8,%rsp
  401664:	c3                   	retq   
  401665:	48 8b 05 1c 31 20 00 	mov    0x20311c(%rip),%rax        # 604788 <stdin@@GLIBC_2.2.5>
  40166c:	48 39 05 2d 31 20 00 	cmp    %rax,0x20312d(%rip)        # 6047a0 <infile>
  401673:	74 19                	je     40168e <read_line+0x9f>
  401675:	bf 69 27 40 00       	mov    $0x402769,%edi
  40167a:	e8 b1 f4 ff ff       	callq  400b30 <getenv@plt>
  40167f:	48 85 c0             	test   %rax,%rax
  401682:	74 1e                	je     4016a2 <read_line+0xb3>
  401684:	bf 00 00 00 00       	mov    $0x0,%edi
  401689:	e8 12 f6 ff ff       	callq  400ca0 <exit@plt>
  40168e:	bf 4b 27 40 00       	mov    $0x40274b,%edi
  401693:	e8 d8 f4 ff ff       	callq  400b70 <puts@plt>
  401698:	bf 08 00 00 00       	mov    $0x8,%edi
  40169d:	e8 fe f5 ff ff       	callq  400ca0 <exit@plt>
  4016a2:	48 8b 05 df 30 20 00 	mov    0x2030df(%rip),%rax        # 604788 <stdin@@GLIBC_2.2.5>
  4016a9:	48 89 05 f0 30 20 00 	mov    %rax,0x2030f0(%rip)        # 6047a0 <infile>
  4016b0:	b8 00 00 00 00       	mov    $0x0,%eax
  4016b5:	e8 f2 fd ff ff       	callq  4014ac <skip>
  4016ba:	48 85 c0             	test   %rax,%rax
  4016bd:	0f 85 3f ff ff ff    	jne    401602 <read_line+0x13>
  4016c3:	bf 4b 27 40 00       	mov    $0x40274b,%edi
  4016c8:	e8 a3 f4 ff ff       	callq  400b70 <puts@plt>
  4016cd:	bf 00 00 00 00       	mov    $0x0,%edi
  4016d2:	e8 c9 f5 ff ff       	callq  400ca0 <exit@plt>
  4016d7:	bf 74 27 40 00       	mov    $0x402774,%edi
  4016dc:	e8 8f f4 ff ff       	callq  400b70 <puts@plt>
  4016e1:	8b 05 b5 30 20 00    	mov    0x2030b5(%rip),%eax        # 60479c <num_input_strings>
  4016e7:	8d 50 01             	lea    0x1(%rax),%edx
  4016ea:	89 15 ac 30 20 00    	mov    %edx,0x2030ac(%rip)        # 60479c <num_input_strings>
  4016f0:	48 98                	cltq   
  4016f2:	48 6b c0 50          	imul   $0x50,%rax,%rax
  4016f6:	48 be 2a 2a 2a 74 72 	mov    $0x636e7572742a2a2a,%rsi
  4016fd:	75 6e 63 
  401700:	48 bf 61 74 65 64 2a 	mov    $0x2a2a2a64657461,%rdi
  401707:	2a 2a 00 
  40170a:	48 89 b0 c0 47 60 00 	mov    %rsi,0x6047c0(%rax)
  401711:	48 89 b8 c8 47 60 00 	mov    %rdi,0x6047c8(%rax)
  401718:	e8 5d fe ff ff       	callq  40157a <explode_bomb>

000000000040171d <phase_defused>:
  40171d:	48 83 ec 68          	sub    $0x68,%rsp
  401721:	bf 01 00 00 00       	mov    $0x1,%edi
  401726:	e8 c2 fd ff ff       	callq  4014ed <send_msg>
  40172b:	83 3d 6a 30 20 00 06 	cmpl   $0x6,0x20306a(%rip)        # 60479c <num_input_strings>
  401732:	74 05                	je     401739 <phase_defused+0x1c>
  401734:	48 83 c4 68          	add    $0x68,%rsp
  401738:	c3                   	retq   
  401739:	4c 8d 44 24 10       	lea    0x10(%rsp),%r8
  40173e:	48 8d 4c 24 08       	lea    0x8(%rsp),%rcx
  401743:	48 8d 54 24 0c       	lea    0xc(%rsp),%rdx
  401748:	be 8f 27 40 00       	mov    $0x40278f,%esi
  40174d:	bf b0 48 60 00       	mov    $0x6048b0,%edi
  401752:	b8 00 00 00 00       	mov    $0x0,%eax
  401757:	e8 f4 f4 ff ff       	callq  400c50 <__isoc99_sscanf@plt>
  40175c:	83 f8 03             	cmp    $0x3,%eax
  40175f:	74 16                	je     401777 <phase_defused+0x5a>
  401761:	bf 50 26 40 00       	mov    $0x402650,%edi
  401766:	e8 05 f4 ff ff       	callq  400b70 <puts@plt>
  40176b:	bf 80 26 40 00       	mov    $0x402680,%edi
  401770:	e8 fb f3 ff ff       	callq  400b70 <puts@plt>
  401775:	eb bd                	jmp    401734 <phase_defused+0x17>
  401777:	be 98 27 40 00       	mov    $0x402798,%esi
  40177c:	48 8d 7c 24 10       	lea    0x10(%rsp),%rdi
  401781:	e8 d9 fb ff ff       	callq  40135f <strings_not_equal>
  401786:	85 c0                	test   %eax,%eax
  401788:	75 d7                	jne    401761 <phase_defused+0x44>
  40178a:	bf f0 25 40 00       	mov    $0x4025f0,%edi
  40178f:	e8 dc f3 ff ff       	callq  400b70 <puts@plt>
  401794:	bf 18 26 40 00       	mov    $0x402618,%edi
  401799:	e8 d2 f3 ff ff       	callq  400b70 <puts@plt>
  40179e:	b8 00 00 00 00       	mov    $0x0,%eax
  4017a3:	e8 d4 fa ff ff       	callq  40127c <secret_phase>
  4017a8:	eb b7                	jmp    401761 <phase_defused+0x44>

00000000004017aa <sigalrm_handler>:
  4017aa:	48 83 ec 08          	sub    $0x8,%rsp
  4017ae:	ba 00 00 00 00       	mov    $0x0,%edx
  4017b3:	be a8 28 40 00       	mov    $0x4028a8,%esi
  4017b8:	48 8b 3d d1 2f 20 00 	mov    0x202fd1(%rip),%rdi        # 604790 <stderr@@GLIBC_2.2.5>
  4017bf:	b8 00 00 00 00       	mov    $0x0,%eax
  4017c4:	e8 47 f4 ff ff       	callq  400c10 <fprintf@plt>
  4017c9:	bf 01 00 00 00       	mov    $0x1,%edi
  4017ce:	e8 cd f4 ff ff       	callq  400ca0 <exit@plt>

00000000004017d3 <rio_readlineb>:
  4017d3:	41 56                	push   %r14
  4017d5:	41 55                	push   %r13
  4017d7:	41 54                	push   %r12
  4017d9:	55                   	push   %rbp
  4017da:	53                   	push   %rbx
  4017db:	48 89 f5             	mov    %rsi,%rbp
  4017de:	48 83 fa 01          	cmp    $0x1,%rdx
  4017e2:	0f 86 90 00 00 00    	jbe    401878 <rio_readlineb+0xa5>
  4017e8:	48 89 fb             	mov    %rdi,%rbx
  4017eb:	4c 8d 74 16 ff       	lea    -0x1(%rsi,%rdx,1),%r14
  4017f0:	41 bd 01 00 00 00    	mov    $0x1,%r13d
  4017f6:	4c 8d 67 10          	lea    0x10(%rdi),%r12
  4017fa:	eb 54                	jmp    401850 <rio_readlineb+0x7d>
  4017fc:	e8 4f f3 ff ff       	callq  400b50 <__errno_location@plt>
  401801:	83 38 04             	cmpl   $0x4,(%rax)
  401804:	75 53                	jne    401859 <rio_readlineb+0x86>
  401806:	ba 00 20 00 00       	mov    $0x2000,%edx
  40180b:	4c 89 e6             	mov    %r12,%rsi
  40180e:	8b 3b                	mov    (%rbx),%edi
  401810:	e8 ab f3 ff ff       	callq  400bc0 <read@plt>
  401815:	89 c2                	mov    %eax,%edx
  401817:	89 43 04             	mov    %eax,0x4(%rbx)
  40181a:	85 c0                	test   %eax,%eax
  40181c:	78 de                	js     4017fc <rio_readlineb+0x29>
  40181e:	85 c0                	test   %eax,%eax
  401820:	74 40                	je     401862 <rio_readlineb+0x8f>
  401822:	4c 89 63 08          	mov    %r12,0x8(%rbx)
  401826:	48 8b 43 08          	mov    0x8(%rbx),%rax
  40182a:	0f b6 08             	movzbl (%rax),%ecx
  40182d:	48 83 c0 01          	add    $0x1,%rax
  401831:	48 89 43 08          	mov    %rax,0x8(%rbx)
  401835:	83 ea 01             	sub    $0x1,%edx
  401838:	89 53 04             	mov    %edx,0x4(%rbx)
  40183b:	48 83 c5 01          	add    $0x1,%rbp
  40183f:	88 4d ff             	mov    %cl,-0x1(%rbp)
  401842:	80 f9 0a             	cmp    $0xa,%cl
  401845:	74 3c                	je     401883 <rio_readlineb+0xb0>
  401847:	41 83 c5 01          	add    $0x1,%r13d
  40184b:	4c 39 f5             	cmp    %r14,%rbp
  40184e:	74 30                	je     401880 <rio_readlineb+0xad>
  401850:	8b 53 04             	mov    0x4(%rbx),%edx
  401853:	85 d2                	test   %edx,%edx
  401855:	7e af                	jle    401806 <rio_readlineb+0x33>
  401857:	eb cd                	jmp    401826 <rio_readlineb+0x53>
  401859:	48 c7 c0 ff ff ff ff 	mov    $0xffffffffffffffff,%rax
  401860:	eb 05                	jmp    401867 <rio_readlineb+0x94>
  401862:	b8 00 00 00 00       	mov    $0x0,%eax
  401867:	85 c0                	test   %eax,%eax
  401869:	75 28                	jne    401893 <rio_readlineb+0xc0>
  40186b:	b8 00 00 00 00       	mov    $0x0,%eax
  401870:	41 83 fd 01          	cmp    $0x1,%r13d
  401874:	75 0d                	jne    401883 <rio_readlineb+0xb0>
  401876:	eb 12                	jmp    40188a <rio_readlineb+0xb7>
  401878:	41 bd 01 00 00 00    	mov    $0x1,%r13d
  40187e:	eb 03                	jmp    401883 <rio_readlineb+0xb0>
  401880:	4c 89 f5             	mov    %r14,%rbp
  401883:	c6 45 00 00          	movb   $0x0,0x0(%rbp)
  401887:	49 63 c5             	movslq %r13d,%rax
  40188a:	5b                   	pop    %rbx
  40188b:	5d                   	pop    %rbp
  40188c:	41 5c                	pop    %r12
  40188e:	41 5d                	pop    %r13
  401890:	41 5e                	pop    %r14
  401892:	c3                   	retq   
  401893:	48 c7 c0 ff ff ff ff 	mov    $0xffffffffffffffff,%rax
  40189a:	eb ee                	jmp    40188a <rio_readlineb+0xb7>

000000000040189c <submitr>:
  40189c:	41 57                	push   %r15
  40189e:	41 56                	push   %r14
  4018a0:	41 55                	push   %r13
  4018a2:	41 54                	push   %r12
  4018a4:	55                   	push   %rbp
  4018a5:	53                   	push   %rbx
  4018a6:	48 81 ec 68 a0 00 00 	sub    $0xa068,%rsp
  4018ad:	49 89 fd             	mov    %rdi,%r13
  4018b0:	89 f5                	mov    %esi,%ebp
  4018b2:	48 89 14 24          	mov    %rdx,(%rsp)
  4018b6:	48 89 4c 24 08       	mov    %rcx,0x8(%rsp)
  4018bb:	4c 89 44 24 18       	mov    %r8,0x18(%rsp)
  4018c0:	4c 89 4c 24 10       	mov    %r9,0x10(%rsp)
  4018c5:	48 8b 9c 24 a0 a0 00 	mov    0xa0a0(%rsp),%rbx
  4018cc:	00 
  4018cd:	4c 8b bc 24 a8 a0 00 	mov    0xa0a8(%rsp),%r15
  4018d4:	00 
  4018d5:	c7 84 24 3c 20 00 00 	movl   $0x0,0x203c(%rsp)
  4018dc:	00 00 00 00 
  4018e0:	ba 00 00 00 00       	mov    $0x0,%edx
  4018e5:	be 01 00 00 00       	mov    $0x1,%esi
  4018ea:	bf 02 00 00 00       	mov    $0x2,%edi
  4018ef:	e8 ec f3 ff ff       	callq  400ce0 <socket@plt>
  4018f4:	85 c0                	test   %eax,%eax
  4018f6:	0f 88 21 01 00 00    	js     401a1d <submitr+0x181>
  4018fc:	41 89 c4             	mov    %eax,%r12d
  4018ff:	4c 89 ef             	mov    %r13,%rdi
  401902:	e8 f9 f2 ff ff       	callq  400c00 <gethostbyname@plt>
  401907:	48 85 c0             	test   %rax,%rax
  40190a:	0f 84 5d 01 00 00    	je     401a6d <submitr+0x1d1>
  401910:	48 c7 84 24 50 a0 00 	movq   $0x0,0xa050(%rsp)
  401917:	00 00 00 00 00 
  40191c:	48 c7 84 24 58 a0 00 	movq   $0x0,0xa058(%rsp)
  401923:	00 00 00 00 00 
  401928:	66 c7 84 24 50 a0 00 	movw   $0x2,0xa050(%rsp)
  40192f:	00 02 00 
  401932:	48 63 50 14          	movslq 0x14(%rax),%rdx
  401936:	48 8b 40 18          	mov    0x18(%rax),%rax
  40193a:	48 8b 30             	mov    (%rax),%rsi
  40193d:	48 8d bc 24 54 a0 00 	lea    0xa054(%rsp),%rdi
  401944:	00 
  401945:	e8 16 f3 ff ff       	callq  400c60 <memmove@plt>
  40194a:	66 c1 cd 08          	ror    $0x8,%bp
  40194e:	66 89 ac 24 52 a0 00 	mov    %bp,0xa052(%rsp)
  401955:	00 
  401956:	ba 10 00 00 00       	mov    $0x10,%edx
  40195b:	48 8d b4 24 50 a0 00 	lea    0xa050(%rsp),%rsi
  401962:	00 
  401963:	44 89 e7             	mov    %r12d,%edi
  401966:	e8 45 f3 ff ff       	callq  400cb0 <connect@plt>
  40196b:	85 c0                	test   %eax,%eax
  40196d:	0f 88 65 01 00 00    	js     401ad8 <submitr+0x23c>
  401973:	49 c7 c1 ff ff ff ff 	mov    $0xffffffffffffffff,%r9
  40197a:	b8 00 00 00 00       	mov    $0x0,%eax
  40197f:	4c 89 c9             	mov    %r9,%rcx
  401982:	48 89 df             	mov    %rbx,%rdi
  401985:	f2 ae                	repnz scas %es:(%rdi),%al
  401987:	48 f7 d1             	not    %rcx
  40198a:	48 89 ce             	mov    %rcx,%rsi
  40198d:	4c 89 c9             	mov    %r9,%rcx
  401990:	48 8b 3c 24          	mov    (%rsp),%rdi
  401994:	f2 ae                	repnz scas %es:(%rdi),%al
  401996:	49 89 c8             	mov    %rcx,%r8
  401999:	4c 89 c9             	mov    %r9,%rcx
  40199c:	48 8b 7c 24 08       	mov    0x8(%rsp),%rdi
  4019a1:	f2 ae                	repnz scas %es:(%rdi),%al
  4019a3:	48 f7 d1             	not    %rcx
  4019a6:	48 89 ca             	mov    %rcx,%rdx
  4019a9:	4c 89 c9             	mov    %r9,%rcx
  4019ac:	48 8b 7c 24 10       	mov    0x10(%rsp),%rdi
  4019b1:	f2 ae                	repnz scas %es:(%rdi),%al
  4019b3:	4c 29 c2             	sub    %r8,%rdx
  4019b6:	48 29 ca             	sub    %rcx,%rdx
  4019b9:	48 8d 44 76 fd       	lea    -0x3(%rsi,%rsi,2),%rax
  4019be:	48 8d 44 02 7b       	lea    0x7b(%rdx,%rax,1),%rax
  4019c3:	48 3d 00 20 00 00    	cmp    $0x2000,%rax
  4019c9:	0f 87 66 01 00 00    	ja     401b35 <submitr+0x299>
  4019cf:	48 8d 94 24 40 40 00 	lea    0x4040(%rsp),%rdx
  4019d6:	00 
  4019d7:	b9 00 04 00 00       	mov    $0x400,%ecx
  4019dc:	b8 00 00 00 00       	mov    $0x0,%eax
  4019e1:	48 89 d7             	mov    %rdx,%rdi
  4019e4:	f3 48 ab             	rep stos %rax,%es:(%rdi)
  4019e7:	48 c7 c1 ff ff ff ff 	mov    $0xffffffffffffffff,%rcx
  4019ee:	48 89 df             	mov    %rbx,%rdi
  4019f1:	f2 ae                	repnz scas %es:(%rdi),%al
  4019f3:	48 f7 d1             	not    %rcx
  4019f6:	48 8d 41 ff          	lea    -0x1(%rcx),%rax
  4019fa:	83 f9 01             	cmp    $0x1,%ecx
  4019fd:	0f 84 45 05 00 00    	je     401f48 <submitr+0x6ac>
  401a03:	8d 40 ff             	lea    -0x1(%rax),%eax
  401a06:	4c 8d 74 03 01       	lea    0x1(%rbx,%rax,1),%r14
  401a0b:	48 89 d5             	mov    %rdx,%rbp
  401a0e:	49 bd d9 ff 00 00 00 	mov    $0x2000000000ffd9,%r13
  401a15:	00 20 00 
  401a18:	e9 a5 01 00 00       	jmpq   401bc2 <submitr+0x326>
  401a1d:	48 b8 45 72 72 6f 72 	mov    $0x43203a726f727245,%rax
  401a24:	3a 20 43 
  401a27:	48 ba 6c 69 65 6e 74 	mov    $0x6e7520746e65696c,%rdx
  401a2e:	20 75 6e 
  401a31:	49 89 07             	mov    %rax,(%r15)
  401a34:	49 89 57 08          	mov    %rdx,0x8(%r15)
  401a38:	48 b8 61 62 6c 65 20 	mov    $0x206f7420656c6261,%rax
  401a3f:	74 6f 20 
  401a42:	48 ba 63 72 65 61 74 	mov    $0x7320657461657263,%rdx
  401a49:	65 20 73 
  401a4c:	49 89 47 10          	mov    %rax,0x10(%r15)
  401a50:	49 89 57 18          	mov    %rdx,0x18(%r15)
  401a54:	41 c7 47 20 6f 63 6b 	movl   $0x656b636f,0x20(%r15)
  401a5b:	65 
  401a5c:	66 41 c7 47 24 74 00 	movw   $0x74,0x24(%r15)
  401a63:	b8 ff ff ff ff       	mov    $0xffffffff,%eax
  401a68:	e9 03 03 00 00       	jmpq   401d70 <submitr+0x4d4>
  401a6d:	48 b8 45 72 72 6f 72 	mov    $0x44203a726f727245,%rax
  401a74:	3a 20 44 
  401a77:	48 ba 4e 53 20 69 73 	mov    $0x6e7520736920534e,%rdx
  401a7e:	20 75 6e 
  401a81:	49 89 07             	mov    %rax,(%r15)
  401a84:	49 89 57 08          	mov    %rdx,0x8(%r15)
  401a88:	48 b8 61 62 6c 65 20 	mov    $0x206f7420656c6261,%rax
  401a8f:	74 6f 20 
  401a92:	48 ba 72 65 73 6f 6c 	mov    $0x2065766c6f736572,%rdx
  401a99:	76 65 20 
  401a9c:	49 89 47 10          	mov    %rax,0x10(%r15)
  401aa0:	49 89 57 18          	mov    %rdx,0x18(%r15)
  401aa4:	48 b8 73 65 72 76 65 	mov    $0x6120726576726573,%rax
  401aab:	72 20 61 
  401aae:	49 89 47 20          	mov    %rax,0x20(%r15)
  401ab2:	41 c7 47 28 64 64 72 	movl   $0x65726464,0x28(%r15)
  401ab9:	65 
  401aba:	66 41 c7 47 2c 73 73 	movw   $0x7373,0x2c(%r15)
  401ac1:	41 c6 47 2e 00       	movb   $0x0,0x2e(%r15)
  401ac6:	44 89 e7             	mov    %r12d,%edi
  401ac9:	e8 e2 f0 ff ff       	callq  400bb0 <close@plt>
  401ace:	b8 ff ff ff ff       	mov    $0xffffffff,%eax
  401ad3:	e9 98 02 00 00       	jmpq   401d70 <submitr+0x4d4>
  401ad8:	48 b8 45 72 72 6f 72 	mov    $0x55203a726f727245,%rax
  401adf:	3a 20 55 
  401ae2:	48 ba 6e 61 62 6c 65 	mov    $0x6f7420656c62616e,%rdx
  401ae9:	20 74 6f 
  401aec:	49 89 07             	mov    %rax,(%r15)
  401aef:	49 89 57 08          	mov    %rdx,0x8(%r15)
  401af3:	48 b8 20 63 6f 6e 6e 	mov    $0x7463656e6e6f6320,%rax
  401afa:	65 63 74 
  401afd:	48 ba 20 74 6f 20 74 	mov    $0x20656874206f7420,%rdx
  401b04:	68 65 20 
  401b07:	49 89 47 10          	mov    %rax,0x10(%r15)
  401b0b:	49 89 57 18          	mov    %rdx,0x18(%r15)
  401b0f:	41 c7 47 20 73 65 72 	movl   $0x76726573,0x20(%r15)
  401b16:	76 
  401b17:	66 41 c7 47 24 65 72 	movw   $0x7265,0x24(%r15)
  401b1e:	41 c6 47 26 00       	movb   $0x0,0x26(%r15)
  401b23:	44 89 e7             	mov    %r12d,%edi
  401b26:	e8 85 f0 ff ff       	callq  400bb0 <close@plt>
  401b2b:	b8 ff ff ff ff       	mov    $0xffffffff,%eax
  401b30:	e9 3b 02 00 00       	jmpq   401d70 <submitr+0x4d4>
  401b35:	48 b8 45 72 72 6f 72 	mov    $0x52203a726f727245,%rax
  401b3c:	3a 20 52 
  401b3f:	48 ba 65 73 75 6c 74 	mov    $0x747320746c757365,%rdx
  401b46:	20 73 74 
  401b49:	49 89 07             	mov    %rax,(%r15)
  401b4c:	49 89 57 08          	mov    %rdx,0x8(%r15)
  401b50:	48 b8 72 69 6e 67 20 	mov    $0x6f6f7420676e6972,%rax
  401b57:	74 6f 6f 
  401b5a:	48 ba 20 6c 61 72 67 	mov    $0x202e656772616c20,%rdx
  401b61:	65 2e 20 
  401b64:	49 89 47 10          	mov    %rax,0x10(%r15)
  401b68:	49 89 57 18          	mov    %rdx,0x18(%r15)
  401b6c:	48 b8 49 6e 63 72 65 	mov    $0x6573616572636e49,%rax
  401b73:	61 73 65 
  401b76:	48 ba 20 53 55 42 4d 	mov    $0x5254494d42555320,%rdx
  401b7d:	49 54 52 
  401b80:	49 89 47 20          	mov    %rax,0x20(%r15)
  401b84:	49 89 57 28          	mov    %rdx,0x28(%r15)
  401b88:	48 b8 5f 4d 41 58 42 	mov    $0x46554258414d5f,%rax
  401b8f:	55 46 00 
  401b92:	49 89 47 30          	mov    %rax,0x30(%r15)
  401b96:	44 89 e7             	mov    %r12d,%edi
  401b99:	e8 12 f0 ff ff       	callq  400bb0 <close@plt>
  401b9e:	b8 ff ff ff ff       	mov    $0xffffffff,%eax
  401ba3:	e9 c8 01 00 00       	jmpq   401d70 <submitr+0x4d4>
  401ba8:	49 0f a3 c5          	bt     %rax,%r13
  401bac:	73 1e                	jae    401bcc <submitr+0x330>
  401bae:	88 55 00             	mov    %dl,0x0(%rbp)
  401bb1:	48 8d 6d 01          	lea    0x1(%rbp),%rbp
  401bb5:	48 83 c3 01          	add    $0x1,%rbx
  401bb9:	49 39 de             	cmp    %rbx,%r14
  401bbc:	0f 84 86 03 00 00    	je     401f48 <submitr+0x6ac>
  401bc2:	0f b6 13             	movzbl (%rbx),%edx
  401bc5:	8d 42 d6             	lea    -0x2a(%rdx),%eax
  401bc8:	3c 35                	cmp    $0x35,%al
  401bca:	76 dc                	jbe    401ba8 <submitr+0x30c>
  401bcc:	89 d0                	mov    %edx,%eax
  401bce:	83 e0 df             	and    $0xffffffffffffffdf,%eax
  401bd1:	83 e8 41             	sub    $0x41,%eax
  401bd4:	3c 19                	cmp    $0x19,%al
  401bd6:	76 d6                	jbe    401bae <submitr+0x312>
  401bd8:	80 fa 20             	cmp    $0x20,%dl
  401bdb:	74 45                	je     401c22 <submitr+0x386>
  401bdd:	8d 42 e0             	lea    -0x20(%rdx),%eax
  401be0:	3c 5f                	cmp    $0x5f,%al
  401be2:	76 09                	jbe    401bed <submitr+0x351>
  401be4:	80 fa 09             	cmp    $0x9,%dl
  401be7:	0f 85 ce 02 00 00    	jne    401ebb <submitr+0x61f>
  401bed:	0f b6 d2             	movzbl %dl,%edx
  401bf0:	be 80 29 40 00       	mov    $0x402980,%esi
  401bf5:	48 8d 7c 24 28       	lea    0x28(%rsp),%rdi
  401bfa:	b8 00 00 00 00       	mov    $0x0,%eax
  401bff:	e8 8c f0 ff ff       	callq  400c90 <sprintf@plt>
  401c04:	0f b6 44 24 28       	movzbl 0x28(%rsp),%eax
  401c09:	88 45 00             	mov    %al,0x0(%rbp)
  401c0c:	0f b6 44 24 29       	movzbl 0x29(%rsp),%eax
  401c11:	88 45 01             	mov    %al,0x1(%rbp)
  401c14:	0f b6 44 24 2a       	movzbl 0x2a(%rsp),%eax
  401c19:	88 45 02             	mov    %al,0x2(%rbp)
  401c1c:	48 8d 6d 03          	lea    0x3(%rbp),%rbp
  401c20:	eb 93                	jmp    401bb5 <submitr+0x319>
  401c22:	c6 45 00 2b          	movb   $0x2b,0x0(%rbp)
  401c26:	48 8d 6d 01          	lea    0x1(%rbp),%rbp
  401c2a:	eb 89                	jmp    401bb5 <submitr+0x319>
  401c2c:	48 01 c5             	add    %rax,%rbp
  401c2f:	48 29 c3             	sub    %rax,%rbx
  401c32:	0f 84 7e 03 00 00    	je     401fb6 <submitr+0x71a>
  401c38:	48 89 da             	mov    %rbx,%rdx
  401c3b:	48 89 ee             	mov    %rbp,%rsi
  401c3e:	44 89 e7             	mov    %r12d,%edi
  401c41:	e8 3a ef ff ff       	callq  400b80 <write@plt>
  401c46:	48 85 c0             	test   %rax,%rax
  401c49:	7f e1                	jg     401c2c <submitr+0x390>
  401c4b:	e8 00 ef ff ff       	callq  400b50 <__errno_location@plt>
  401c50:	83 38 04             	cmpl   $0x4,(%rax)
  401c53:	0f 85 03 02 00 00    	jne    401e5c <submitr+0x5c0>
  401c59:	4c 89 e8             	mov    %r13,%rax
  401c5c:	eb ce                	jmp    401c2c <submitr+0x390>
  401c5e:	48 b8 45 72 72 6f 72 	mov    $0x43203a726f727245,%rax
  401c65:	3a 20 43 
  401c68:	48 ba 6c 69 65 6e 74 	mov    $0x6e7520746e65696c,%rdx
  401c6f:	20 75 6e 
  401c72:	49 89 07             	mov    %rax,(%r15)
  401c75:	49 89 57 08          	mov    %rdx,0x8(%r15)
  401c79:	48 b8 61 62 6c 65 20 	mov    $0x206f7420656c6261,%rax
  401c80:	74 6f 20 
  401c83:	48 ba 72 65 61 64 20 	mov    $0x7269662064616572,%rdx
  401c8a:	66 69 72 
  401c8d:	49 89 47 10          	mov    %rax,0x10(%r15)
  401c91:	49 89 57 18          	mov    %rdx,0x18(%r15)
  401c95:	48 b8 73 74 20 68 65 	mov    $0x6564616568207473,%rax
  401c9c:	61 64 65 
  401c9f:	48 ba 72 20 66 72 6f 	mov    $0x73206d6f72662072,%rdx
  401ca6:	6d 20 73 
  401ca9:	49 89 47 20          	mov    %rax,0x20(%r15)
  401cad:	49 89 57 28          	mov    %rdx,0x28(%r15)
  401cb1:	41 c7 47 30 65 72 76 	movl   $0x65767265,0x30(%r15)
  401cb8:	65 
  401cb9:	66 41 c7 47 34 72 00 	movw   $0x72,0x34(%r15)
  401cc0:	44 89 e7             	mov    %r12d,%edi
  401cc3:	e8 e8 ee ff ff       	callq  400bb0 <close@plt>
  401cc8:	b8 ff ff ff ff       	mov    $0xffffffff,%eax
  401ccd:	e9 9e 00 00 00       	jmpq   401d70 <submitr+0x4d4>
  401cd2:	ba 00 20 00 00       	mov    $0x2000,%edx
  401cd7:	48 8d b4 24 40 60 00 	lea    0x6040(%rsp),%rsi
  401cde:	00 
  401cdf:	48 8d bc 24 40 80 00 	lea    0x8040(%rsp),%rdi
  401ce6:	00 
  401ce7:	e8 e7 fa ff ff       	callq  4017d3 <rio_readlineb>
  401cec:	48 85 c0             	test   %rax,%rax
  401cef:	0f 8e 8d 00 00 00    	jle    401d82 <submitr+0x4e6>
  401cf5:	80 bc 24 40 60 00 00 	cmpb   $0xd,0x6040(%rsp)
  401cfc:	0d 
  401cfd:	75 d3                	jne    401cd2 <submitr+0x436>
  401cff:	80 bc 24 41 60 00 00 	cmpb   $0xa,0x6041(%rsp)
  401d06:	0a 
  401d07:	75 c9                	jne    401cd2 <submitr+0x436>
  401d09:	80 bc 24 42 60 00 00 	cmpb   $0x0,0x6042(%rsp)
  401d10:	00 
  401d11:	75 bf                	jne    401cd2 <submitr+0x436>
  401d13:	ba 00 20 00 00       	mov    $0x2000,%edx
  401d18:	48 8d b4 24 40 60 00 	lea    0x6040(%rsp),%rsi
  401d1f:	00 
  401d20:	48 8d bc 24 40 80 00 	lea    0x8040(%rsp),%rdi
  401d27:	00 
  401d28:	e8 a6 fa ff ff       	callq  4017d3 <rio_readlineb>
  401d2d:	48 85 c0             	test   %rax,%rax
  401d30:	0f 8e b3 00 00 00    	jle    401de9 <submitr+0x54d>
  401d36:	48 8d b4 24 40 60 00 	lea    0x6040(%rsp),%rsi
  401d3d:	00 
  401d3e:	4c 89 ff             	mov    %r15,%rdi
  401d41:	e8 1a ee ff ff       	callq  400b60 <strcpy@plt>
  401d46:	44 89 e7             	mov    %r12d,%edi
  401d49:	e8 62 ee ff ff       	callq  400bb0 <close@plt>
  401d4e:	41 0f b6 07          	movzbl (%r15),%eax
  401d52:	83 e8 4f             	sub    $0x4f,%eax
  401d55:	75 0f                	jne    401d66 <submitr+0x4ca>
  401d57:	41 0f b6 47 01       	movzbl 0x1(%r15),%eax
  401d5c:	83 e8 4b             	sub    $0x4b,%eax
  401d5f:	75 05                	jne    401d66 <submitr+0x4ca>
  401d61:	41 0f b6 47 02       	movzbl 0x2(%r15),%eax
  401d66:	85 c0                	test   %eax,%eax
  401d68:	0f 95 c0             	setne  %al
  401d6b:	0f b6 c0             	movzbl %al,%eax
  401d6e:	f7 d8                	neg    %eax
  401d70:	48 81 c4 68 a0 00 00 	add    $0xa068,%rsp
  401d77:	5b                   	pop    %rbx
  401d78:	5d                   	pop    %rbp
  401d79:	41 5c                	pop    %r12
  401d7b:	41 5d                	pop    %r13
  401d7d:	41 5e                	pop    %r14
  401d7f:	41 5f                	pop    %r15
  401d81:	c3                   	retq   
  401d82:	48 b8 45 72 72 6f 72 	mov    $0x43203a726f727245,%rax
  401d89:	3a 20 43 
  401d8c:	48 ba 6c 69 65 6e 74 	mov    $0x6e7520746e65696c,%rdx
  401d93:	20 75 6e 
  401d96:	49 89 07             	mov    %rax,(%r15)
  401d99:	49 89 57 08          	mov    %rdx,0x8(%r15)
  401d9d:	48 b8 61 62 6c 65 20 	mov    $0x206f7420656c6261,%rax
  401da4:	74 6f 20 
  401da7:	48 ba 72 65 61 64 20 	mov    $0x6165682064616572,%rdx
  401dae:	68 65 61 
  401db1:	49 89 47 10          	mov    %rax,0x10(%r15)
  401db5:	49 89 57 18          	mov    %rdx,0x18(%r15)
  401db9:	48 b8 64 65 72 73 20 	mov    $0x6f72662073726564,%rax
  401dc0:	66 72 6f 
  401dc3:	48 ba 6d 20 73 65 72 	mov    $0x726576726573206d,%rdx
  401dca:	76 65 72 
  401dcd:	49 89 47 20          	mov    %rax,0x20(%r15)
  401dd1:	49 89 57 28          	mov    %rdx,0x28(%r15)
  401dd5:	41 c6 47 30 00       	movb   $0x0,0x30(%r15)
  401dda:	44 89 e7             	mov    %r12d,%edi
  401ddd:	e8 ce ed ff ff       	callq  400bb0 <close@plt>
  401de2:	b8 ff ff ff ff       	mov    $0xffffffff,%eax
  401de7:	eb 87                	jmp    401d70 <submitr+0x4d4>
  401de9:	48 b8 45 72 72 6f 72 	mov    $0x43203a726f727245,%rax
  401df0:	3a 20 43 
  401df3:	48 ba 6c 69 65 6e 74 	mov    $0x6e7520746e65696c,%rdx
  401dfa:	20 75 6e 
  401dfd:	49 89 07             	mov    %rax,(%r15)
  401e00:	49 89 57 08          	mov    %rdx,0x8(%r15)
  401e04:	48 b8 61 62 6c 65 20 	mov    $0x206f7420656c6261,%rax
  401e0b:	74 6f 20 
  401e0e:	48 ba 72 65 61 64 20 	mov    $0x6174732064616572,%rdx
  401e15:	73 74 61 
  401e18:	49 89 47 10          	mov    %rax,0x10(%r15)
  401e1c:	49 89 57 18          	mov    %rdx,0x18(%r15)
  401e20:	48 b8 74 75 73 20 6d 	mov    $0x7373656d20737574,%rax
  401e27:	65 73 73 
  401e2a:	48 ba 61 67 65 20 66 	mov    $0x6d6f726620656761,%rdx
  401e31:	72 6f 6d 
  401e34:	49 89 47 20          	mov    %rax,0x20(%r15)
  401e38:	49 89 57 28          	mov    %rdx,0x28(%r15)
  401e3c:	48 b8 20 73 65 72 76 	mov    $0x72657672657320,%rax
  401e43:	65 72 00 
  401e46:	49 89 47 30          	mov    %rax,0x30(%r15)
  401e4a:	44 89 e7             	mov    %r12d,%edi
  401e4d:	e8 5e ed ff ff       	callq  400bb0 <close@plt>
  401e52:	b8 ff ff ff ff       	mov    $0xffffffff,%eax
  401e57:	e9 14 ff ff ff       	jmpq   401d70 <submitr+0x4d4>
  401e5c:	48 b8 45 72 72 6f 72 	mov    $0x43203a726f727245,%rax
  401e63:	3a 20 43 
  401e66:	48 ba 6c 69 65 6e 74 	mov    $0x6e7520746e65696c,%rdx
  401e6d:	20 75 6e 
  401e70:	49 89 07             	mov    %rax,(%r15)
  401e73:	49 89 57 08          	mov    %rdx,0x8(%r15)
  401e77:	48 b8 61 62 6c 65 20 	mov    $0x206f7420656c6261,%rax
  401e7e:	74 6f 20 
  401e81:	48 ba 77 72 69 74 65 	mov    $0x6f74206574697277,%rdx
  401e88:	20 74 6f 
  401e8b:	49 89 47 10          	mov    %rax,0x10(%r15)
  401e8f:	49 89 57 18          	mov    %rdx,0x18(%r15)
  401e93:	48 b8 20 74 68 65 20 	mov    $0x7265732065687420,%rax
  401e9a:	73 65 72 
  401e9d:	49 89 47 20          	mov    %rax,0x20(%r15)
  401ea1:	41 c7 47 28 76 65 72 	movl   $0x726576,0x28(%r15)
  401ea8:	00 
  401ea9:	44 89 e7             	mov    %r12d,%edi
  401eac:	e8 ff ec ff ff       	callq  400bb0 <close@plt>
  401eb1:	b8 ff ff ff ff       	mov    $0xffffffff,%eax
  401eb6:	e9 b5 fe ff ff       	jmpq   401d70 <submitr+0x4d4>
  401ebb:	48 b8 45 72 72 6f 72 	mov    $0x52203a726f727245,%rax
  401ec2:	3a 20 52 
  401ec5:	48 ba 65 73 75 6c 74 	mov    $0x747320746c757365,%rdx
  401ecc:	20 73 74 
  401ecf:	49 89 07             	mov    %rax,(%r15)
  401ed2:	49 89 57 08          	mov    %rdx,0x8(%r15)
  401ed6:	48 b8 72 69 6e 67 20 	mov    $0x6e6f6320676e6972,%rax
  401edd:	63 6f 6e 
  401ee0:	48 ba 74 61 69 6e 73 	mov    $0x6e6120736e696174,%rdx
  401ee7:	20 61 6e 
  401eea:	49 89 47 10          	mov    %rax,0x10(%r15)
  401eee:	49 89 57 18          	mov    %rdx,0x18(%r15)
  401ef2:	48 b8 20 69 6c 6c 65 	mov    $0x6c6167656c6c6920,%rax
  401ef9:	67 61 6c 
  401efc:	48 ba 20 6f 72 20 75 	mov    $0x72706e7520726f20,%rdx
  401f03:	6e 70 72 
  401f06:	49 89 47 20          	mov    %rax,0x20(%r15)
  401f0a:	49 89 57 28          	mov    %rdx,0x28(%r15)
  401f0e:	48 b8 69 6e 74 61 62 	mov    $0x20656c6261746e69,%rax
  401f15:	6c 65 20 
  401f18:	48 ba 63 68 61 72 61 	mov    $0x6574636172616863,%rdx
  401f1f:	63 74 65 
  401f22:	49 89 47 30          	mov    %rax,0x30(%r15)
  401f26:	49 89 57 38          	mov    %rdx,0x38(%r15)
  401f2a:	66 41 c7 47 40 72 2e 	movw   $0x2e72,0x40(%r15)
  401f31:	41 c6 47 42 00       	movb   $0x0,0x42(%r15)
  401f36:	44 89 e7             	mov    %r12d,%edi
  401f39:	e8 72 ec ff ff       	callq  400bb0 <close@plt>
  401f3e:	b8 ff ff ff ff       	mov    $0xffffffff,%eax
  401f43:	e9 28 fe ff ff       	jmpq   401d70 <submitr+0x4d4>
  401f48:	48 8d 9c 24 40 60 00 	lea    0x6040(%rsp),%rbx
  401f4f:	00 
  401f50:	48 83 ec 08          	sub    $0x8,%rsp
  401f54:	48 8d 84 24 48 40 00 	lea    0x4048(%rsp),%rax
  401f5b:	00 
  401f5c:	50                   	push   %rax
  401f5d:	4c 8b 4c 24 20       	mov    0x20(%rsp),%r9
  401f62:	4c 8b 44 24 28       	mov    0x28(%rsp),%r8
  401f67:	48 8b 4c 24 18       	mov    0x18(%rsp),%rcx
  401f6c:	48 8b 54 24 10       	mov    0x10(%rsp),%rdx
  401f71:	be 00 29 40 00       	mov    $0x402900,%esi
  401f76:	48 89 df             	mov    %rbx,%rdi
  401f79:	b8 00 00 00 00       	mov    $0x0,%eax
  401f7e:	e8 0d ed ff ff       	callq  400c90 <sprintf@plt>
  401f83:	48 c7 c1 ff ff ff ff 	mov    $0xffffffffffffffff,%rcx
  401f8a:	b8 00 00 00 00       	mov    $0x0,%eax
  401f8f:	48 89 df             	mov    %rbx,%rdi
  401f92:	f2 ae                	repnz scas %es:(%rdi),%al
  401f94:	48 f7 d1             	not    %rcx
  401f97:	48 83 c4 10          	add    $0x10,%rsp
  401f9b:	48 8d ac 24 40 60 00 	lea    0x6040(%rsp),%rbp
  401fa2:	00 
  401fa3:	41 bd 00 00 00 00    	mov    $0x0,%r13d
  401fa9:	48 83 e9 01          	sub    $0x1,%rcx
  401fad:	48 89 cb             	mov    %rcx,%rbx
  401fb0:	0f 85 82 fc ff ff    	jne    401c38 <submitr+0x39c>
  401fb6:	44 89 a4 24 40 80 00 	mov    %r12d,0x8040(%rsp)
  401fbd:	00 
  401fbe:	c7 84 24 44 80 00 00 	movl   $0x0,0x8044(%rsp)
  401fc5:	00 00 00 00 
  401fc9:	48 8d 84 24 50 80 00 	lea    0x8050(%rsp),%rax
  401fd0:	00 
  401fd1:	48 89 84 24 48 80 00 	mov    %rax,0x8048(%rsp)
  401fd8:	00 
  401fd9:	ba 00 20 00 00       	mov    $0x2000,%edx
  401fde:	48 8d b4 24 40 60 00 	lea    0x6040(%rsp),%rsi
  401fe5:	00 
  401fe6:	48 8d bc 24 40 80 00 	lea    0x8040(%rsp),%rdi
  401fed:	00 
  401fee:	e8 e0 f7 ff ff       	callq  4017d3 <rio_readlineb>
  401ff3:	48 85 c0             	test   %rax,%rax
  401ff6:	0f 8e 62 fc ff ff    	jle    401c5e <submitr+0x3c2>
  401ffc:	4c 8d 44 24 30       	lea    0x30(%rsp),%r8
  402001:	48 8d 8c 24 3c 20 00 	lea    0x203c(%rsp),%rcx
  402008:	00 
  402009:	48 8d 94 24 40 20 00 	lea    0x2040(%rsp),%rdx
  402010:	00 
  402011:	be 87 29 40 00       	mov    $0x402987,%esi
  402016:	48 8d bc 24 40 60 00 	lea    0x6040(%rsp),%rdi
  40201d:	00 
  40201e:	b8 00 00 00 00       	mov    $0x0,%eax
  402023:	e8 28 ec ff ff       	callq  400c50 <__isoc99_sscanf@plt>
  402028:	8b 94 24 3c 20 00 00 	mov    0x203c(%rsp),%edx
  40202f:	81 fa c8 00 00 00    	cmp    $0xc8,%edx
  402035:	0f 84 ba fc ff ff    	je     401cf5 <submitr+0x459>
  40203b:	48 8d 4c 24 30       	lea    0x30(%rsp),%rcx
  402040:	be d0 28 40 00       	mov    $0x4028d0,%esi
  402045:	4c 89 ff             	mov    %r15,%rdi
  402048:	b8 00 00 00 00       	mov    $0x0,%eax
  40204d:	e8 3e ec ff ff       	callq  400c90 <sprintf@plt>
  402052:	44 89 e7             	mov    %r12d,%edi
  402055:	e8 56 eb ff ff       	callq  400bb0 <close@plt>
  40205a:	b8 ff ff ff ff       	mov    $0xffffffff,%eax
  40205f:	e9 0c fd ff ff       	jmpq   401d70 <submitr+0x4d4>

0000000000402064 <init_timeout>:
  402064:	85 ff                	test   %edi,%edi
  402066:	75 01                	jne    402069 <init_timeout+0x5>
  402068:	c3                   	retq   
  402069:	53                   	push   %rbx
  40206a:	89 fb                	mov    %edi,%ebx
  40206c:	be aa 17 40 00       	mov    $0x4017aa,%esi
  402071:	bf 0e 00 00 00       	mov    $0xe,%edi
  402076:	e8 75 eb ff ff       	callq  400bf0 <signal@plt>
  40207b:	85 db                	test   %ebx,%ebx
  40207d:	bf 00 00 00 00       	mov    $0x0,%edi
  402082:	0f 49 fb             	cmovns %ebx,%edi
  402085:	e8 16 eb ff ff       	callq  400ba0 <alarm@plt>
  40208a:	5b                   	pop    %rbx
  40208b:	c3                   	retq   

000000000040208c <init_driver>:
  40208c:	55                   	push   %rbp
  40208d:	53                   	push   %rbx
  40208e:	48 83 ec 18          	sub    $0x18,%rsp
  402092:	48 89 fd             	mov    %rdi,%rbp
  402095:	be 01 00 00 00       	mov    $0x1,%esi
  40209a:	bf 0d 00 00 00       	mov    $0xd,%edi
  40209f:	e8 4c eb ff ff       	callq  400bf0 <signal@plt>
  4020a4:	be 01 00 00 00       	mov    $0x1,%esi
  4020a9:	bf 1d 00 00 00       	mov    $0x1d,%edi
  4020ae:	e8 3d eb ff ff       	callq  400bf0 <signal@plt>
  4020b3:	be 01 00 00 00       	mov    $0x1,%esi
  4020b8:	bf 1d 00 00 00       	mov    $0x1d,%edi
  4020bd:	e8 2e eb ff ff       	callq  400bf0 <signal@plt>
  4020c2:	ba 00 00 00 00       	mov    $0x0,%edx
  4020c7:	be 01 00 00 00       	mov    $0x1,%esi
  4020cc:	bf 02 00 00 00       	mov    $0x2,%edi
  4020d1:	e8 0a ec ff ff       	callq  400ce0 <socket@plt>
  4020d6:	85 c0                	test   %eax,%eax
  4020d8:	78 7c                	js     402156 <init_driver+0xca>
  4020da:	89 c3                	mov    %eax,%ebx
  4020dc:	bf 32 28 40 00       	mov    $0x402832,%edi
  4020e1:	e8 1a eb ff ff       	callq  400c00 <gethostbyname@plt>
  4020e6:	48 85 c0             	test   %rax,%rax
  4020e9:	0f 84 b3 00 00 00    	je     4021a2 <init_driver+0x116>
  4020ef:	48 c7 04 24 00 00 00 	movq   $0x0,(%rsp)
  4020f6:	00 
  4020f7:	48 c7 44 24 08 00 00 	movq   $0x0,0x8(%rsp)
  4020fe:	00 00 
  402100:	66 c7 04 24 02 00    	movw   $0x2,(%rsp)
  402106:	48 63 50 14          	movslq 0x14(%rax),%rdx
  40210a:	48 8b 40 18          	mov    0x18(%rax),%rax
  40210e:	48 8b 30             	mov    (%rax),%rsi
  402111:	48 8d 7c 24 04       	lea    0x4(%rsp),%rdi
  402116:	e8 45 eb ff ff       	callq  400c60 <memmove@plt>
  40211b:	66 c7 44 24 02 3b 6e 	movw   $0x6e3b,0x2(%rsp)
  402122:	ba 10 00 00 00       	mov    $0x10,%edx
  402127:	48 89 e6             	mov    %rsp,%rsi
  40212a:	89 df                	mov    %ebx,%edi
  40212c:	e8 7f eb ff ff       	callq  400cb0 <connect@plt>
  402131:	85 c0                	test   %eax,%eax
  402133:	0f 88 d1 00 00 00    	js     40220a <init_driver+0x17e>
  402139:	89 df                	mov    %ebx,%edi
  40213b:	e8 70 ea ff ff       	callq  400bb0 <close@plt>
  402140:	66 c7 45 00 4f 4b    	movw   $0x4b4f,0x0(%rbp)
  402146:	c6 45 02 00          	movb   $0x0,0x2(%rbp)
  40214a:	b8 00 00 00 00       	mov    $0x0,%eax
  40214f:	48 83 c4 18          	add    $0x18,%rsp
  402153:	5b                   	pop    %rbx
  402154:	5d                   	pop    %rbp
  402155:	c3                   	retq   
  402156:	48 b8 45 72 72 6f 72 	mov    $0x43203a726f727245,%rax
  40215d:	3a 20 43 
  402160:	48 ba 6c 69 65 6e 74 	mov    $0x6e7520746e65696c,%rdx
  402167:	20 75 6e 
  40216a:	48 89 45 00          	mov    %rax,0x0(%rbp)
  40216e:	48 89 55 08          	mov    %rdx,0x8(%rbp)
  402172:	48 b8 61 62 6c 65 20 	mov    $0x206f7420656c6261,%rax
  402179:	74 6f 20 
  40217c:	48 ba 63 72 65 61 74 	mov    $0x7320657461657263,%rdx
  402183:	65 20 73 
  402186:	48 89 45 10          	mov    %rax,0x10(%rbp)
  40218a:	48 89 55 18          	mov    %rdx,0x18(%rbp)
  40218e:	c7 45 20 6f 63 6b 65 	movl   $0x656b636f,0x20(%rbp)
  402195:	66 c7 45 24 74 00    	movw   $0x74,0x24(%rbp)
  40219b:	b8 ff ff ff ff       	mov    $0xffffffff,%eax
  4021a0:	eb ad                	jmp    40214f <init_driver+0xc3>
  4021a2:	48 b8 45 72 72 6f 72 	mov    $0x44203a726f727245,%rax
  4021a9:	3a 20 44 
  4021ac:	48 ba 4e 53 20 69 73 	mov    $0x6e7520736920534e,%rdx
  4021b3:	20 75 6e 
  4021b6:	48 89 45 00          	mov    %rax,0x0(%rbp)
  4021ba:	48 89 55 08          	mov    %rdx,0x8(%rbp)
  4021be:	48 b8 61 62 6c 65 20 	mov    $0x206f7420656c6261,%rax
  4021c5:	74 6f 20 
  4021c8:	48 ba 72 65 73 6f 6c 	mov    $0x2065766c6f736572,%rdx
  4021cf:	76 65 20 
  4021d2:	48 89 45 10          	mov    %rax,0x10(%rbp)
  4021d6:	48 89 55 18          	mov    %rdx,0x18(%rbp)
  4021da:	48 b8 73 65 72 76 65 	mov    $0x6120726576726573,%rax
  4021e1:	72 20 61 
  4021e4:	48 89 45 20          	mov    %rax,0x20(%rbp)
  4021e8:	c7 45 28 64 64 72 65 	movl   $0x65726464,0x28(%rbp)
  4021ef:	66 c7 45 2c 73 73    	movw   $0x7373,0x2c(%rbp)
  4021f5:	c6 45 2e 00          	movb   $0x0,0x2e(%rbp)
  4021f9:	89 df                	mov    %ebx,%edi
  4021fb:	e8 b0 e9 ff ff       	callq  400bb0 <close@plt>
  402200:	b8 ff ff ff ff       	mov    $0xffffffff,%eax
  402205:	e9 45 ff ff ff       	jmpq   40214f <init_driver+0xc3>
  40220a:	ba 32 28 40 00       	mov    $0x402832,%edx
  40220f:	be 58 29 40 00       	mov    $0x402958,%esi
  402214:	48 89 ef             	mov    %rbp,%rdi
  402217:	b8 00 00 00 00       	mov    $0x0,%eax
  40221c:	e8 6f ea ff ff       	callq  400c90 <sprintf@plt>
  402221:	89 df                	mov    %ebx,%edi
  402223:	e8 88 e9 ff ff       	callq  400bb0 <close@plt>
  402228:	b8 ff ff ff ff       	mov    $0xffffffff,%eax
  40222d:	e9 1d ff ff ff       	jmpq   40214f <init_driver+0xc3>

0000000000402232 <driver_post>:
  402232:	53                   	push   %rbx
  402233:	4c 89 c3             	mov    %r8,%rbx
  402236:	85 c9                	test   %ecx,%ecx
  402238:	75 17                	jne    402251 <driver_post+0x1f>
  40223a:	48 85 ff             	test   %rdi,%rdi
  40223d:	74 05                	je     402244 <driver_post+0x12>
  40223f:	80 3f 00             	cmpb   $0x0,(%rdi)
  402242:	75 2f                	jne    402273 <driver_post+0x41>
  402244:	66 c7 03 4f 4b       	movw   $0x4b4f,(%rbx)
  402249:	c6 43 02 00          	movb   $0x0,0x2(%rbx)
  40224d:	89 c8                	mov    %ecx,%eax
  40224f:	5b                   	pop    %rbx
  402250:	c3                   	retq   
  402251:	48 89 d6             	mov    %rdx,%rsi
  402254:	bf 98 29 40 00       	mov    $0x402998,%edi
  402259:	b8 00 00 00 00       	mov    $0x0,%eax
  40225e:	e8 2d e9 ff ff       	callq  400b90 <printf@plt>
  402263:	66 c7 03 4f 4b       	movw   $0x4b4f,(%rbx)
  402268:	c6 43 02 00          	movb   $0x0,0x2(%rbx)
  40226c:	b8 00 00 00 00       	mov    $0x0,%eax
  402271:	eb dc                	jmp    40224f <driver_post+0x1d>
  402273:	41 50                	push   %r8
  402275:	52                   	push   %rdx
  402276:	41 b9 af 29 40 00    	mov    $0x4029af,%r9d
  40227c:	49 89 f0             	mov    %rsi,%r8
  40227f:	48 89 f9             	mov    %rdi,%rcx
  402282:	ba b3 29 40 00       	mov    $0x4029b3,%edx
  402287:	be 6e 3b 00 00       	mov    $0x3b6e,%esi
  40228c:	bf 32 28 40 00       	mov    $0x402832,%edi
  402291:	e8 06 f6 ff ff       	callq  40189c <submitr>
  402296:	48 83 c4 10          	add    $0x10,%rsp
  40229a:	eb b3                	jmp    40224f <driver_post+0x1d>
  40229c:	0f 1f 40 00          	nopl   0x0(%rax)

00000000004022a0 <__libc_csu_init>:
  4022a0:	41 57                	push   %r15
  4022a2:	41 89 ff             	mov    %edi,%r15d
  4022a5:	41 56                	push   %r14
  4022a7:	49 89 f6             	mov    %rsi,%r14
  4022aa:	41 55                	push   %r13
  4022ac:	49 89 d5             	mov    %rdx,%r13
  4022af:	41 54                	push   %r12
  4022b1:	4c 8d 25 60 1b 20 00 	lea    0x201b60(%rip),%r12        # 603e18 <__frame_dummy_init_array_entry>
  4022b8:	55                   	push   %rbp
  4022b9:	48 8d 2d 60 1b 20 00 	lea    0x201b60(%rip),%rbp        # 603e20 <__init_array_end>
  4022c0:	53                   	push   %rbx
  4022c1:	4c 29 e5             	sub    %r12,%rbp
  4022c4:	31 db                	xor    %ebx,%ebx
  4022c6:	48 c1 fd 03          	sar    $0x3,%rbp
  4022ca:	48 83 ec 08          	sub    $0x8,%rsp
  4022ce:	e8 2d e8 ff ff       	callq  400b00 <_init>
  4022d3:	48 85 ed             	test   %rbp,%rbp
  4022d6:	74 1e                	je     4022f6 <__libc_csu_init+0x56>
  4022d8:	0f 1f 84 00 00 00 00 	nopl   0x0(%rax,%rax,1)
  4022df:	00 
  4022e0:	4c 89 ea             	mov    %r13,%rdx
  4022e3:	4c 89 f6             	mov    %r14,%rsi
  4022e6:	44 89 ff             	mov    %r15d,%edi
  4022e9:	41 ff 14 dc          	callq  *(%r12,%rbx,8)
  4022ed:	48 83 c3 01          	add    $0x1,%rbx
  4022f1:	48 39 eb             	cmp    %rbp,%rbx
  4022f4:	75 ea                	jne    4022e0 <__libc_csu_init+0x40>
  4022f6:	48 83 c4 08          	add    $0x8,%rsp
  4022fa:	5b                   	pop    %rbx
  4022fb:	5d                   	pop    %rbp
  4022fc:	41 5c                	pop    %r12
  4022fe:	41 5d                	pop    %r13
  402300:	41 5e                	pop    %r14
  402302:	41 5f                	pop    %r15
  402304:	c3                   	retq   
  402305:	90                   	nop
  402306:	66 2e 0f 1f 84 00 00 	nopw   %cs:0x0(%rax,%rax,1)
  40230d:	00 00 00 

0000000000402310 <__libc_csu_fini>:
  402310:	f3 c3                	repz retq 

Disassembly of section .fini:

0000000000402314 <_fini>:
  402314:	48 83 ec 08          	sub    $0x8,%rsp
  402318:	48 83 c4 08          	add    $0x8,%rsp
  40231c:	c3                   	retq   
